Archive member included to satisfy reference by file (symbol)

../../slave_bsp/ps7_cortexa9_1/lib\libxil.a(xscugic.o)
                              ./src/helper.o (XScuGic_CfgInitialize)
../../slave_bsp/ps7_cortexa9_1/lib\libxil.a(xscugic_intr.o)
                              ./src/helper.o (XScuGic_InterruptHandler)
../../slave_bsp/ps7_cortexa9_1/lib\libxil.a(xscugic_sinit.o)
                              ./src/helper.o (XScuGic_LookupConfig)
../../slave_bsp/ps7_cortexa9_1/lib\libxil.a(asm_vectors.o)
                              (_vector_table)
../../slave_bsp/ps7_cortexa9_1/lib\libxil.a(boot.o)
                              ../../slave_bsp/ps7_cortexa9_1/lib\libxil.a(asm_vectors.o) (_boot)
../../slave_bsp/ps7_cortexa9_1/lib\libxil.a(translation_table.o)
                              ../../slave_bsp/ps7_cortexa9_1/lib\libxil.a(boot.o) (MMUTable)
../../slave_bsp/ps7_cortexa9_1/lib\libxil.a(vectors.o)
                              ../../slave_bsp/ps7_cortexa9_1/lib\libxil.a(asm_vectors.o) (FIQInterrupt)
../../slave_bsp/ps7_cortexa9_1/lib\libxil.a(xil-crt0.o)
                              ../../slave_bsp/ps7_cortexa9_1/lib\libxil.a(boot.o) (_start)
../../slave_bsp/ps7_cortexa9_1/lib\libxil.a(xil_assert.o)
                              ../../slave_bsp/ps7_cortexa9_1/lib\libxil.a(xscugic.o) (Xil_AssertStatus)
../../slave_bsp/ps7_cortexa9_1/lib\libxil.a(xil_cache.o)
                              ./src/helper.o (Xil_DCacheDisable)
../../slave_bsp/ps7_cortexa9_1/lib\libxil.a(xil_exception.o)
                              ../../slave_bsp/ps7_cortexa9_1/lib\libxil.a(vectors.o) (XExc_VectorTable)
../../slave_bsp/ps7_cortexa9_1/lib\libxil.a(xil_printf.o)
                              ./src/echo_test.o (xil_printf)
../../slave_bsp/ps7_cortexa9_1/lib\libxil.a(xscugic_g.o)
                              ../../slave_bsp/ps7_cortexa9_1/lib\libxil.a(xscugic_sinit.o) (XScuGic_ConfigTable)
../../slave_bsp/ps7_cortexa9_1/lib\libxil.a(cpu_init.o)
                              ../../slave_bsp/ps7_cortexa9_1/lib\libxil.a(xil-crt0.o) (__cpu_init)
../../slave_bsp/ps7_cortexa9_1/lib\libxil.a(outbyte.o)
                              ../../slave_bsp/ps7_cortexa9_1/lib\libxil.a(xil_printf.o) (outbyte)
../../slave_bsp/ps7_cortexa9_1/lib\libxil.a(xuartps_hw.o)
                              ../../slave_bsp/ps7_cortexa9_1/lib\libxil.a(outbyte.o) (XUartPs_SendByte)
c:/xilinx/sdk/2017.2/gnu/aarch32/nt/gcc-arm-none-eabi/bin/../lib/gcc/arm-none-eabi/6.2.1/v7-a/fpv3/hard\libgcc.a(_udivsi3.o)
                              ../../slave_bsp/ps7_cortexa9_1/lib\libxil.a(xil_cache.o) (__aeabi_uidiv)
c:/xilinx/sdk/2017.2/gnu/aarch32/nt/gcc-arm-none-eabi/bin/../lib/gcc/arm-none-eabi/6.2.1/v7-a/fpv3/hard\libgcc.a(_dvmd_tls.o)
                              c:/xilinx/sdk/2017.2/gnu/aarch32/nt/gcc-arm-none-eabi/bin/../lib/gcc/arm-none-eabi/6.2.1/v7-a/fpv3/hard\libgcc.a(_udivsi3.o) (__aeabi_idiv0)
c:/xilinx/sdk/2017.2/gnu/aarch32/nt/gcc-arm-none-eabi/bin/../arm-none-eabi/libc/usr/lib/v7-a/fpv3/hard\libc.a(lib_a-ctype_.o)
                              ../../slave_bsp/ps7_cortexa9_1/lib\libxil.a(xil_printf.o) (__ctype_ptr__)
c:/xilinx/sdk/2017.2/gnu/aarch32/nt/gcc-arm-none-eabi/bin/../arm-none-eabi/libc/usr/lib/v7-a/fpv3/hard\libc.a(lib_a-exit.o)
                              ../../slave_bsp/ps7_cortexa9_1/lib\libxil.a(xil-crt0.o) (exit)
c:/xilinx/sdk/2017.2/gnu/aarch32/nt/gcc-arm-none-eabi/bin/../arm-none-eabi/libc/usr/lib/v7-a/fpv3/hard\libc.a(lib_a-fini.o)
                              ../../slave_bsp/ps7_cortexa9_1/lib\libxil.a(xil-crt0.o) (__libc_fini_array)
c:/xilinx/sdk/2017.2/gnu/aarch32/nt/gcc-arm-none-eabi/bin/../arm-none-eabi/libc/usr/lib/v7-a/fpv3/hard\libc.a(lib_a-impure.o)
                              c:/xilinx/sdk/2017.2/gnu/aarch32/nt/gcc-arm-none-eabi/bin/../arm-none-eabi/libc/usr/lib/v7-a/fpv3/hard\libc.a(lib_a-exit.o) (_global_impure_ptr)
c:/xilinx/sdk/2017.2/gnu/aarch32/nt/gcc-arm-none-eabi/bin/../arm-none-eabi/libc/usr/lib/v7-a/fpv3/hard\libc.a(lib_a-init.o)
                              ../../slave_bsp/ps7_cortexa9_1/lib\libxil.a(xil-crt0.o) (__libc_init_array)
c:/xilinx/sdk/2017.2/gnu/aarch32/nt/gcc-arm-none-eabi/bin/../arm-none-eabi/libc/usr/lib/v7-a/fpv3/hard\libc.a(lib_a-strlen.o)
                              ../../slave_bsp/ps7_cortexa9_1/lib\libxil.a(xil_printf.o) (strlen)
c:/xilinx/sdk/2017.2/gnu/aarch32/nt/gcc-arm-none-eabi/bin/../arm-none-eabi/libc/usr/lib/v7-a/fpv3/hard\libc.a(lib_a-__call_atexit.o)
                              c:/xilinx/sdk/2017.2/gnu/aarch32/nt/gcc-arm-none-eabi/bin/../arm-none-eabi/libc/usr/lib/v7-a/fpv3/hard\libc.a(lib_a-exit.o) (__call_exitprocs)
../../slave_bsp/ps7_cortexa9_1/lib\libxil.a(_exit.o)
                              c:/xilinx/sdk/2017.2/gnu/aarch32/nt/gcc-arm-none-eabi/bin/../arm-none-eabi/libc/usr/lib/v7-a/fpv3/hard\libc.a(lib_a-exit.o) (_exit)
../../slave_bsp/ps7_cortexa9_1/lib\libmetal.a(init.c.obj)
                              ./src/helper.o (metal_init)
../../slave_bsp/ps7_cortexa9_1/lib\libmetal.a(log.c.obj)
                              ./src/helper.o (metal_default_log_handler)
../../slave_bsp/ps7_cortexa9_1/lib\libmetal.a(init.c.obj)
                              ../../slave_bsp/ps7_cortexa9_1/lib\libmetal.a(init.c.obj) (_metal)
../../slave_bsp/ps7_cortexa9_1/lib\libmetal.a(irq.c.obj)
                              ./src/helper.o (metal_irq_isr)
../../slave_bsp/ps7_cortexa9_1/lib\libmetal.a(sys.c.obj)
                              ../../slave_bsp/ps7_cortexa9_1/lib\libmetal.a(irq.c.obj) (sys_irq_restore_enable)
../../slave_bsp/ps7_cortexa9_1/lib\libopen_amp.a(hil.c.obj)
                              ./src/platform_info.o (hil_create_proc)
../../slave_bsp/ps7_cortexa9_1/lib\libopen_amp.a(firmware.c.obj)
                              ../../slave_bsp/ps7_cortexa9_1/lib\libopen_amp.a(hil.c.obj) (config_get_firmware)
../../slave_bsp/ps7_cortexa9_1/lib\libopen_amp.a(virtqueue.c.obj)
                              ../../slave_bsp/ps7_cortexa9_1/lib\libopen_amp.a(hil.c.obj) (virtqueue_free)
../../slave_bsp/ps7_cortexa9_1/lib\libopen_amp.a(rpmsg.c.obj)
                              ./src/echo_test.o (rpmsg_init)
../../slave_bsp/ps7_cortexa9_1/lib\libopen_amp.a(rpmsg_core.c.obj)
                              ../../slave_bsp/ps7_cortexa9_1/lib\libopen_amp.a(rpmsg.c.obj) (rpmsg_start_ipc)
../../slave_bsp/ps7_cortexa9_1/lib\libopen_amp.a(remoteproc.c.obj)
                              ./src/echo_test.o (remoteproc_resource_init)
../../slave_bsp/ps7_cortexa9_1/lib\libopen_amp.a(remoteproc_loader.c.obj)
                              ../../slave_bsp/ps7_cortexa9_1/lib\libopen_amp.a(remoteproc.c.obj) (remoteproc_loader_init)
../../slave_bsp/ps7_cortexa9_1/lib\libopen_amp.a(rsc_table_parser.c.obj)
                              ../../slave_bsp/ps7_cortexa9_1/lib\libopen_amp.a(remoteproc.c.obj) (handle_rsc_table)
../../slave_bsp/ps7_cortexa9_1/lib\libopen_amp.a(zynq_remoteproc_a9.c.obj)
                              ./src/platform_info.o (zynq_a9_proc_ops)
../../slave_bsp/ps7_cortexa9_1/lib\libopen_amp.a(sh_mem.c.obj)
                              ../../slave_bsp/ps7_cortexa9_1/lib\libopen_amp.a(rpmsg_core.c.obj) (sh_mem_get_buffer)
../../slave_bsp/ps7_cortexa9_1/lib\libopen_amp.a(remote_device.c.obj)
                              ../../slave_bsp/ps7_cortexa9_1/lib\libopen_amp.a(rpmsg.c.obj) (rpmsg_rdev_init)
../../slave_bsp/ps7_cortexa9_1/lib\libopen_amp.a(elf_loader.c.obj)
                              ../../slave_bsp/ps7_cortexa9_1/lib\libopen_amp.a(remoteproc_loader.c.obj) (elf_loader_init)
c:/xilinx/sdk/2017.2/gnu/aarch32/nt/gcc-arm-none-eabi/bin/../lib/gcc/arm-none-eabi/6.2.1/v7-a/fpv3/hard\libgcc.a(_divsi3.o)
                              ../../slave_bsp/ps7_cortexa9_1/lib\libopen_amp.a(sh_mem.c.obj) (__aeabi_idiv)
c:/xilinx/sdk/2017.2/gnu/aarch32/nt/gcc-arm-none-eabi/bin/../arm-none-eabi/libc/usr/lib/v7-a/fpv3/hard\libc.a(lib_a-assert.o)
                              ../../slave_bsp/ps7_cortexa9_1/lib\libopen_amp.a(zynq_remoteproc_a9.c.obj) (__assert_func)
c:/xilinx/sdk/2017.2/gnu/aarch32/nt/gcc-arm-none-eabi/bin/../arm-none-eabi/libc/usr/lib/v7-a/fpv3/hard\libc.a(lib_a-fiprintf.o)
                              c:/xilinx/sdk/2017.2/gnu/aarch32/nt/gcc-arm-none-eabi/bin/../arm-none-eabi/libc/usr/lib/v7-a/fpv3/hard\libc.a(lib_a-assert.o) (fiprintf)
c:/xilinx/sdk/2017.2/gnu/aarch32/nt/gcc-arm-none-eabi/bin/../arm-none-eabi/libc/usr/lib/v7-a/fpv3/hard\libc.a(lib_a-malloc.o)
                              ../../slave_bsp/ps7_cortexa9_1/lib\libopen_amp.a(hil.c.obj) (malloc)
c:/xilinx/sdk/2017.2/gnu/aarch32/nt/gcc-arm-none-eabi/bin/../arm-none-eabi/libc/usr/lib/v7-a/fpv3/hard\libc.a(lib_a-mallocr.o)
                              c:/xilinx/sdk/2017.2/gnu/aarch32/nt/gcc-arm-none-eabi/bin/../arm-none-eabi/libc/usr/lib/v7-a/fpv3/hard\libc.a(lib_a-malloc.o) (_malloc_r)
c:/xilinx/sdk/2017.2/gnu/aarch32/nt/gcc-arm-none-eabi/bin/../arm-none-eabi/libc/usr/lib/v7-a/fpv3/hard\libc.a(lib_a-memcpy.o)
                              ../../slave_bsp/ps7_cortexa9_1/lib\libopen_amp.a(rpmsg.c.obj) (memcpy)
c:/xilinx/sdk/2017.2/gnu/aarch32/nt/gcc-arm-none-eabi/bin/../arm-none-eabi/libc/usr/lib/v7-a/fpv3/hard\libc.a(lib_a-memset.o)
                              ../../slave_bsp/ps7_cortexa9_1/lib\libmetal.a(init.c.obj) (memset)
c:/xilinx/sdk/2017.2/gnu/aarch32/nt/gcc-arm-none-eabi/bin/../arm-none-eabi/libc/usr/lib/v7-a/fpv3/hard\libc.a(lib_a-mlock.o)
                              c:/xilinx/sdk/2017.2/gnu/aarch32/nt/gcc-arm-none-eabi/bin/../arm-none-eabi/libc/usr/lib/v7-a/fpv3/hard\libc.a(lib_a-mallocr.o) (__malloc_lock)
c:/xilinx/sdk/2017.2/gnu/aarch32/nt/gcc-arm-none-eabi/bin/../arm-none-eabi/libc/usr/lib/v7-a/fpv3/hard\libc.a(lib_a-printf.o)
                              ../../slave_bsp/ps7_cortexa9_1/lib\libopen_amp.a(virtqueue.c.obj) (printf)
c:/xilinx/sdk/2017.2/gnu/aarch32/nt/gcc-arm-none-eabi/bin/../arm-none-eabi/libc/usr/lib/v7-a/fpv3/hard\libc.a(lib_a-sbrkr.o)
                              c:/xilinx/sdk/2017.2/gnu/aarch32/nt/gcc-arm-none-eabi/bin/../arm-none-eabi/libc/usr/lib/v7-a/fpv3/hard\libc.a(lib_a-mallocr.o) (_sbrk_r)
c:/xilinx/sdk/2017.2/gnu/aarch32/nt/gcc-arm-none-eabi/bin/../arm-none-eabi/libc/usr/lib/v7-a/fpv3/hard\libc.a(lib_a-strcmp.o)
                              ../../slave_bsp/ps7_cortexa9_1/lib\libopen_amp.a(elf_loader.c.obj) (strcmp)
c:/xilinx/sdk/2017.2/gnu/aarch32/nt/gcc-arm-none-eabi/bin/../arm-none-eabi/libc/usr/lib/v7-a/fpv3/hard\libc.a(lib_a-strcpy.o)
                              ../../slave_bsp/ps7_cortexa9_1/lib\libopen_amp.a(hil.c.obj) (strcpy)
c:/xilinx/sdk/2017.2/gnu/aarch32/nt/gcc-arm-none-eabi/bin/../arm-none-eabi/libc/usr/lib/v7-a/fpv3/hard\libc.a(lib_a-strncmp.o)
                              ../../slave_bsp/ps7_cortexa9_1/lib\libopen_amp.a(firmware.c.obj) (strncmp)
c:/xilinx/sdk/2017.2/gnu/aarch32/nt/gcc-arm-none-eabi/bin/../arm-none-eabi/libc/usr/lib/v7-a/fpv3/hard\libc.a(lib_a-strncpy.o)
                              ../../slave_bsp/ps7_cortexa9_1/lib\libopen_amp.a(virtqueue.c.obj) (strncpy)
c:/xilinx/sdk/2017.2/gnu/aarch32/nt/gcc-arm-none-eabi/bin/../arm-none-eabi/libc/usr/lib/v7-a/fpv3/hard\libc.a(lib_a-vfiprintf.o)
                              c:/xilinx/sdk/2017.2/gnu/aarch32/nt/gcc-arm-none-eabi/bin/../arm-none-eabi/libc/usr/lib/v7-a/fpv3/hard\libc.a(lib_a-fiprintf.o) (_vfiprintf_r)
c:/xilinx/sdk/2017.2/gnu/aarch32/nt/gcc-arm-none-eabi/bin/../arm-none-eabi/libc/usr/lib/v7-a/fpv3/hard\libc.a(lib_a-vfprintf.o)
                              c:/xilinx/sdk/2017.2/gnu/aarch32/nt/gcc-arm-none-eabi/bin/../arm-none-eabi/libc/usr/lib/v7-a/fpv3/hard\libc.a(lib_a-printf.o) (_vfprintf_r)
c:/xilinx/sdk/2017.2/gnu/aarch32/nt/gcc-arm-none-eabi/bin/../arm-none-eabi/libc/usr/lib/v7-a/fpv3/hard\libc.a(lib_a-wcrtomb.o)
                              c:/xilinx/sdk/2017.2/gnu/aarch32/nt/gcc-arm-none-eabi/bin/../arm-none-eabi/libc/usr/lib/v7-a/fpv3/hard\libc.a(lib_a-vfiprintf.o) (_wcrtomb_r)
c:/xilinx/sdk/2017.2/gnu/aarch32/nt/gcc-arm-none-eabi/bin/../arm-none-eabi/libc/usr/lib/v7-a/fpv3/hard\libc.a(lib_a-wcsrtombs.o)
                              c:/xilinx/sdk/2017.2/gnu/aarch32/nt/gcc-arm-none-eabi/bin/../arm-none-eabi/libc/usr/lib/v7-a/fpv3/hard\libc.a(lib_a-vfiprintf.o) (_wcsrtombs_r)
c:/xilinx/sdk/2017.2/gnu/aarch32/nt/gcc-arm-none-eabi/bin/../arm-none-eabi/libc/usr/lib/v7-a/fpv3/hard\libc.a(lib_a-wctomb_r.o)
                              c:/xilinx/sdk/2017.2/gnu/aarch32/nt/gcc-arm-none-eabi/bin/../arm-none-eabi/libc/usr/lib/v7-a/fpv3/hard\libc.a(lib_a-wcrtomb.o) (__wctomb)
c:/xilinx/sdk/2017.2/gnu/aarch32/nt/gcc-arm-none-eabi/bin/../arm-none-eabi/libc/usr/lib/v7-a/fpv3/hard\libc.a(lib_a-wsetup.o)
                              c:/xilinx/sdk/2017.2/gnu/aarch32/nt/gcc-arm-none-eabi/bin/../arm-none-eabi/libc/usr/lib/v7-a/fpv3/hard\libc.a(lib_a-vfiprintf.o) (__swsetup_r)
c:/xilinx/sdk/2017.2/gnu/aarch32/nt/gcc-arm-none-eabi/bin/../arm-none-eabi/libc/usr/lib/v7-a/fpv3/hard\libc.a(lib_a-abort.o)
                              c:/xilinx/sdk/2017.2/gnu/aarch32/nt/gcc-arm-none-eabi/bin/../arm-none-eabi/libc/usr/lib/v7-a/fpv3/hard\libc.a(lib_a-assert.o) (abort)
c:/xilinx/sdk/2017.2/gnu/aarch32/nt/gcc-arm-none-eabi/bin/../arm-none-eabi/libc/usr/lib/v7-a/fpv3/hard\libc.a(lib_a-dtoa.o)
                              c:/xilinx/sdk/2017.2/gnu/aarch32/nt/gcc-arm-none-eabi/bin/../arm-none-eabi/libc/usr/lib/v7-a/fpv3/hard\libc.a(lib_a-vfprintf.o) (_dtoa_r)
c:/xilinx/sdk/2017.2/gnu/aarch32/nt/gcc-arm-none-eabi/bin/../arm-none-eabi/libc/usr/lib/v7-a/fpv3/hard\libc.a(lib_a-fflush.o)
                              c:/xilinx/sdk/2017.2/gnu/aarch32/nt/gcc-arm-none-eabi/bin/../arm-none-eabi/libc/usr/lib/v7-a/fpv3/hard\libc.a(lib_a-vfiprintf.o) (_fflush_r)
c:/xilinx/sdk/2017.2/gnu/aarch32/nt/gcc-arm-none-eabi/bin/../arm-none-eabi/libc/usr/lib/v7-a/fpv3/hard\libc.a(lib_a-findfp.o)
                              c:/xilinx/sdk/2017.2/gnu/aarch32/nt/gcc-arm-none-eabi/bin/../arm-none-eabi/libc/usr/lib/v7-a/fpv3/hard\libc.a(lib_a-vfiprintf.o) (__sinit)
c:/xilinx/sdk/2017.2/gnu/aarch32/nt/gcc-arm-none-eabi/bin/../arm-none-eabi/libc/usr/lib/v7-a/fpv3/hard\libc.a(lib_a-fputwc.o)
                              c:/xilinx/sdk/2017.2/gnu/aarch32/nt/gcc-arm-none-eabi/bin/../arm-none-eabi/libc/usr/lib/v7-a/fpv3/hard\libc.a(lib_a-vfiprintf.o) (_fputwc_r)
c:/xilinx/sdk/2017.2/gnu/aarch32/nt/gcc-arm-none-eabi/bin/../arm-none-eabi/libc/usr/lib/v7-a/fpv3/hard\libc.a(lib_a-freer.o)
                              c:/xilinx/sdk/2017.2/gnu/aarch32/nt/gcc-arm-none-eabi/bin/../arm-none-eabi/libc/usr/lib/v7-a/fpv3/hard\libc.a(lib_a-malloc.o) (_free_r)
c:/xilinx/sdk/2017.2/gnu/aarch32/nt/gcc-arm-none-eabi/bin/../arm-none-eabi/libc/usr/lib/v7-a/fpv3/hard\libc.a(lib_a-fvwrite.o)
                              c:/xilinx/sdk/2017.2/gnu/aarch32/nt/gcc-arm-none-eabi/bin/../arm-none-eabi/libc/usr/lib/v7-a/fpv3/hard\libc.a(lib_a-vfiprintf.o) (__sfvwrite_r)
c:/xilinx/sdk/2017.2/gnu/aarch32/nt/gcc-arm-none-eabi/bin/../arm-none-eabi/libc/usr/lib/v7-a/fpv3/hard\libc.a(lib_a-fwalk.o)
                              c:/xilinx/sdk/2017.2/gnu/aarch32/nt/gcc-arm-none-eabi/bin/../arm-none-eabi/libc/usr/lib/v7-a/fpv3/hard\libc.a(lib_a-findfp.o) (_fwalk)
c:/xilinx/sdk/2017.2/gnu/aarch32/nt/gcc-arm-none-eabi/bin/../arm-none-eabi/libc/usr/lib/v7-a/fpv3/hard\libc.a(lib_a-locale.o)
                              c:/xilinx/sdk/2017.2/gnu/aarch32/nt/gcc-arm-none-eabi/bin/../arm-none-eabi/libc/usr/lib/v7-a/fpv3/hard\libc.a(lib_a-vfiprintf.o) (__locale_charset)
c:/xilinx/sdk/2017.2/gnu/aarch32/nt/gcc-arm-none-eabi/bin/../arm-none-eabi/libc/usr/lib/v7-a/fpv3/hard\libc.a(lib_a-makebuf.o)
                              c:/xilinx/sdk/2017.2/gnu/aarch32/nt/gcc-arm-none-eabi/bin/../arm-none-eabi/libc/usr/lib/v7-a/fpv3/hard\libc.a(lib_a-wsetup.o) (__smakebuf_r)
c:/xilinx/sdk/2017.2/gnu/aarch32/nt/gcc-arm-none-eabi/bin/../arm-none-eabi/libc/usr/lib/v7-a/fpv3/hard\libc.a(lib_a-mbtowc_r.o)
                              c:/xilinx/sdk/2017.2/gnu/aarch32/nt/gcc-arm-none-eabi/bin/../arm-none-eabi/libc/usr/lib/v7-a/fpv3/hard\libc.a(lib_a-locale.o) (__ascii_mbtowc)
c:/xilinx/sdk/2017.2/gnu/aarch32/nt/gcc-arm-none-eabi/bin/../arm-none-eabi/libc/usr/lib/v7-a/fpv3/hard\libc.a(lib_a-memchr.o)
                              c:/xilinx/sdk/2017.2/gnu/aarch32/nt/gcc-arm-none-eabi/bin/../arm-none-eabi/libc/usr/lib/v7-a/fpv3/hard\libc.a(lib_a-vfiprintf.o) (memchr)
c:/xilinx/sdk/2017.2/gnu/aarch32/nt/gcc-arm-none-eabi/bin/../arm-none-eabi/libc/usr/lib/v7-a/fpv3/hard\libc.a(lib_a-memmove.o)
                              c:/xilinx/sdk/2017.2/gnu/aarch32/nt/gcc-arm-none-eabi/bin/../arm-none-eabi/libc/usr/lib/v7-a/fpv3/hard\libc.a(lib_a-fvwrite.o) (memmove)
c:/xilinx/sdk/2017.2/gnu/aarch32/nt/gcc-arm-none-eabi/bin/../arm-none-eabi/libc/usr/lib/v7-a/fpv3/hard\libc.a(lib_a-mprec.o)
                              c:/xilinx/sdk/2017.2/gnu/aarch32/nt/gcc-arm-none-eabi/bin/../arm-none-eabi/libc/usr/lib/v7-a/fpv3/hard\libc.a(lib_a-dtoa.o) (_Balloc)
c:/xilinx/sdk/2017.2/gnu/aarch32/nt/gcc-arm-none-eabi/bin/../arm-none-eabi/libc/usr/lib/v7-a/fpv3/hard\libc.a(lib_a-reallocr.o)
                              c:/xilinx/sdk/2017.2/gnu/aarch32/nt/gcc-arm-none-eabi/bin/../arm-none-eabi/libc/usr/lib/v7-a/fpv3/hard\libc.a(lib_a-fvwrite.o) (_realloc_r)
c:/xilinx/sdk/2017.2/gnu/aarch32/nt/gcc-arm-none-eabi/bin/../arm-none-eabi/libc/usr/lib/v7-a/fpv3/hard\libc.a(lib_a-reent.o)
                              c:/xilinx/sdk/2017.2/gnu/aarch32/nt/gcc-arm-none-eabi/bin/../arm-none-eabi/libc/usr/lib/v7-a/fpv3/hard\libc.a(lib_a-sbrkr.o) (errno)
c:/xilinx/sdk/2017.2/gnu/aarch32/nt/gcc-arm-none-eabi/bin/../arm-none-eabi/libc/usr/lib/v7-a/fpv3/hard\libc.a(lib_a-s_frexp.o)
                              c:/xilinx/sdk/2017.2/gnu/aarch32/nt/gcc-arm-none-eabi/bin/../arm-none-eabi/libc/usr/lib/v7-a/fpv3/hard\libc.a(lib_a-vfprintf.o) (frexp)
c:/xilinx/sdk/2017.2/gnu/aarch32/nt/gcc-arm-none-eabi/bin/../arm-none-eabi/libc/usr/lib/v7-a/fpv3/hard\libc.a(lib_a-signal.o)
                              c:/xilinx/sdk/2017.2/gnu/aarch32/nt/gcc-arm-none-eabi/bin/../arm-none-eabi/libc/usr/lib/v7-a/fpv3/hard\libc.a(lib_a-abort.o) (raise)
c:/xilinx/sdk/2017.2/gnu/aarch32/nt/gcc-arm-none-eabi/bin/../arm-none-eabi/libc/usr/lib/v7-a/fpv3/hard\libc.a(lib_a-signalr.o)
                              c:/xilinx/sdk/2017.2/gnu/aarch32/nt/gcc-arm-none-eabi/bin/../arm-none-eabi/libc/usr/lib/v7-a/fpv3/hard\libc.a(lib_a-signal.o) (_kill_r)
c:/xilinx/sdk/2017.2/gnu/aarch32/nt/gcc-arm-none-eabi/bin/../arm-none-eabi/libc/usr/lib/v7-a/fpv3/hard\libc.a(lib_a-stdio.o)
                              c:/xilinx/sdk/2017.2/gnu/aarch32/nt/gcc-arm-none-eabi/bin/../arm-none-eabi/libc/usr/lib/v7-a/fpv3/hard\libc.a(lib_a-findfp.o) (__sread)
c:/xilinx/sdk/2017.2/gnu/aarch32/nt/gcc-arm-none-eabi/bin/../arm-none-eabi/libc/usr/lib/v7-a/fpv3/hard\libc.a(lib_a-strcasecmp.o)
                              c:/xilinx/sdk/2017.2/gnu/aarch32/nt/gcc-arm-none-eabi/bin/../arm-none-eabi/libc/usr/lib/v7-a/fpv3/hard\libc.a(lib_a-locale.o) (strcasecmp)
c:/xilinx/sdk/2017.2/gnu/aarch32/nt/gcc-arm-none-eabi/bin/../arm-none-eabi/libc/usr/lib/v7-a/fpv3/hard\libc.a(lib_a-strcat.o)
                              c:/xilinx/sdk/2017.2/gnu/aarch32/nt/gcc-arm-none-eabi/bin/../arm-none-eabi/libc/usr/lib/v7-a/fpv3/hard\libc.a(lib_a-locale.o) (strcat)
c:/xilinx/sdk/2017.2/gnu/aarch32/nt/gcc-arm-none-eabi/bin/../arm-none-eabi/libc/usr/lib/v7-a/fpv3/hard\libc.a(lib_a-strchr.o)
                              c:/xilinx/sdk/2017.2/gnu/aarch32/nt/gcc-arm-none-eabi/bin/../arm-none-eabi/libc/usr/lib/v7-a/fpv3/hard\libc.a(lib_a-locale.o) (strchr)
c:/xilinx/sdk/2017.2/gnu/aarch32/nt/gcc-arm-none-eabi/bin/../arm-none-eabi/libc/usr/lib/v7-a/fpv3/hard\libc.a(lib_a-strlcpy.o)
                              c:/xilinx/sdk/2017.2/gnu/aarch32/nt/gcc-arm-none-eabi/bin/../arm-none-eabi/libc/usr/lib/v7-a/fpv3/hard\libc.a(lib_a-locale.o) (strlcpy)
c:/xilinx/sdk/2017.2/gnu/aarch32/nt/gcc-arm-none-eabi/bin/../arm-none-eabi/libc/usr/lib/v7-a/fpv3/hard\libc.a(lib_a-strncasecmp.o)
                              c:/xilinx/sdk/2017.2/gnu/aarch32/nt/gcc-arm-none-eabi/bin/../arm-none-eabi/libc/usr/lib/v7-a/fpv3/hard\libc.a(lib_a-locale.o) (strncasecmp)
c:/xilinx/sdk/2017.2/gnu/aarch32/nt/gcc-arm-none-eabi/bin/../arm-none-eabi/libc/usr/lib/v7-a/fpv3/hard\libc.a(lib_a-strtol.o)
                              c:/xilinx/sdk/2017.2/gnu/aarch32/nt/gcc-arm-none-eabi/bin/../arm-none-eabi/libc/usr/lib/v7-a/fpv3/hard\libc.a(lib_a-locale.o) (_strtol_r)
c:/xilinx/sdk/2017.2/gnu/aarch32/nt/gcc-arm-none-eabi/bin/../arm-none-eabi/libc/usr/lib/v7-a/fpv3/hard\libc.a(lib_a-wbuf.o)
                              c:/xilinx/sdk/2017.2/gnu/aarch32/nt/gcc-arm-none-eabi/bin/../arm-none-eabi/libc/usr/lib/v7-a/fpv3/hard\libc.a(lib_a-fputwc.o) (__swbuf_r)
c:/xilinx/sdk/2017.2/gnu/aarch32/nt/gcc-arm-none-eabi/bin/../arm-none-eabi/libc/usr/lib/v7-a/fpv3/hard\libc.a(lib_a-wcsnrtombs.o)
                              c:/xilinx/sdk/2017.2/gnu/aarch32/nt/gcc-arm-none-eabi/bin/../arm-none-eabi/libc/usr/lib/v7-a/fpv3/hard\libc.a(lib_a-wcsrtombs.o) (_wcsnrtombs_r)
c:/xilinx/sdk/2017.2/gnu/aarch32/nt/gcc-arm-none-eabi/bin/../arm-none-eabi/libc/usr/lib/v7-a/fpv3/hard\libc.a(lib_a-writer.o)
                              c:/xilinx/sdk/2017.2/gnu/aarch32/nt/gcc-arm-none-eabi/bin/../arm-none-eabi/libc/usr/lib/v7-a/fpv3/hard\libc.a(lib_a-stdio.o) (_write_r)
c:/xilinx/sdk/2017.2/gnu/aarch32/nt/gcc-arm-none-eabi/bin/../arm-none-eabi/libc/usr/lib/v7-a/fpv3/hard\libc.a(lib_a-callocr.o)
                              c:/xilinx/sdk/2017.2/gnu/aarch32/nt/gcc-arm-none-eabi/bin/../arm-none-eabi/libc/usr/lib/v7-a/fpv3/hard\libc.a(lib_a-mprec.o) (_calloc_r)
c:/xilinx/sdk/2017.2/gnu/aarch32/nt/gcc-arm-none-eabi/bin/../arm-none-eabi/libc/usr/lib/v7-a/fpv3/hard\libc.a(lib_a-closer.o)
                              c:/xilinx/sdk/2017.2/gnu/aarch32/nt/gcc-arm-none-eabi/bin/../arm-none-eabi/libc/usr/lib/v7-a/fpv3/hard\libc.a(lib_a-stdio.o) (_close_r)
c:/xilinx/sdk/2017.2/gnu/aarch32/nt/gcc-arm-none-eabi/bin/../arm-none-eabi/libc/usr/lib/v7-a/fpv3/hard\libc.a(lib_a-fclose.o)
                              c:/xilinx/sdk/2017.2/gnu/aarch32/nt/gcc-arm-none-eabi/bin/../arm-none-eabi/libc/usr/lib/v7-a/fpv3/hard\libc.a(lib_a-findfp.o) (_fclose_r)
c:/xilinx/sdk/2017.2/gnu/aarch32/nt/gcc-arm-none-eabi/bin/../arm-none-eabi/libc/usr/lib/v7-a/fpv3/hard\libc.a(lib_a-fstatr.o)
                              c:/xilinx/sdk/2017.2/gnu/aarch32/nt/gcc-arm-none-eabi/bin/../arm-none-eabi/libc/usr/lib/v7-a/fpv3/hard\libc.a(lib_a-makebuf.o) (_fstat_r)
c:/xilinx/sdk/2017.2/gnu/aarch32/nt/gcc-arm-none-eabi/bin/../arm-none-eabi/libc/usr/lib/v7-a/fpv3/hard\libc.a(lib_a-getenv_r.o)
                              c:/xilinx/sdk/2017.2/gnu/aarch32/nt/gcc-arm-none-eabi/bin/../arm-none-eabi/libc/usr/lib/v7-a/fpv3/hard\libc.a(lib_a-locale.o) (_getenv_r)
c:/xilinx/sdk/2017.2/gnu/aarch32/nt/gcc-arm-none-eabi/bin/../arm-none-eabi/libc/usr/lib/v7-a/fpv3/hard\libc.a(lib_a-isattyr.o)
                              c:/xilinx/sdk/2017.2/gnu/aarch32/nt/gcc-arm-none-eabi/bin/../arm-none-eabi/libc/usr/lib/v7-a/fpv3/hard\libc.a(lib_a-makebuf.o) (_isatty_r)
c:/xilinx/sdk/2017.2/gnu/aarch32/nt/gcc-arm-none-eabi/bin/../arm-none-eabi/libc/usr/lib/v7-a/fpv3/hard\libc.a(lib_a-lseekr.o)
                              c:/xilinx/sdk/2017.2/gnu/aarch32/nt/gcc-arm-none-eabi/bin/../arm-none-eabi/libc/usr/lib/v7-a/fpv3/hard\libc.a(lib_a-stdio.o) (_lseek_r)
c:/xilinx/sdk/2017.2/gnu/aarch32/nt/gcc-arm-none-eabi/bin/../arm-none-eabi/libc/usr/lib/v7-a/fpv3/hard\libc.a(lib_a-readr.o)
                              c:/xilinx/sdk/2017.2/gnu/aarch32/nt/gcc-arm-none-eabi/bin/../arm-none-eabi/libc/usr/lib/v7-a/fpv3/hard\libc.a(lib_a-stdio.o) (_read_r)
c:/xilinx/sdk/2017.2/gnu/aarch32/nt/gcc-arm-none-eabi/bin/../arm-none-eabi/libc/usr/lib/v7-a/fpv3/hard\libc.a(lib_a-environ.o)
                              c:/xilinx/sdk/2017.2/gnu/aarch32/nt/gcc-arm-none-eabi/bin/../arm-none-eabi/libc/usr/lib/v7-a/fpv3/hard\libc.a(lib_a-getenv_r.o) (environ)
c:/xilinx/sdk/2017.2/gnu/aarch32/nt/gcc-arm-none-eabi/bin/../arm-none-eabi/libc/usr/lib/v7-a/fpv3/hard\libc.a(lib_a-envlock.o)
                              c:/xilinx/sdk/2017.2/gnu/aarch32/nt/gcc-arm-none-eabi/bin/../arm-none-eabi/libc/usr/lib/v7-a/fpv3/hard\libc.a(lib_a-getenv_r.o) (__env_lock)
../../slave_bsp/ps7_cortexa9_1/lib\libxil.a(_sbrk.o)
                              c:/xilinx/sdk/2017.2/gnu/aarch32/nt/gcc-arm-none-eabi/bin/../arm-none-eabi/libc/usr/lib/v7-a/fpv3/hard\libc.a(lib_a-sbrkr.o) (_sbrk)
../../slave_bsp/ps7_cortexa9_1/lib\libxil.a(fstat.o)
                              c:/xilinx/sdk/2017.2/gnu/aarch32/nt/gcc-arm-none-eabi/bin/../arm-none-eabi/libc/usr/lib/v7-a/fpv3/hard\libc.a(lib_a-fstatr.o) (_fstat)
../../slave_bsp/ps7_cortexa9_1/lib\libxil.a(getpid.o)
                              c:/xilinx/sdk/2017.2/gnu/aarch32/nt/gcc-arm-none-eabi/bin/../arm-none-eabi/libc/usr/lib/v7-a/fpv3/hard\libc.a(lib_a-signalr.o) (_getpid)
../../slave_bsp/ps7_cortexa9_1/lib\libxil.a(isatty.o)
                              c:/xilinx/sdk/2017.2/gnu/aarch32/nt/gcc-arm-none-eabi/bin/../arm-none-eabi/libc/usr/lib/v7-a/fpv3/hard\libc.a(lib_a-isattyr.o) (_isatty)
../../slave_bsp/ps7_cortexa9_1/lib\libxil.a(kill.o)
                              c:/xilinx/sdk/2017.2/gnu/aarch32/nt/gcc-arm-none-eabi/bin/../arm-none-eabi/libc/usr/lib/v7-a/fpv3/hard\libc.a(lib_a-signalr.o) (_kill)
../../slave_bsp/ps7_cortexa9_1/lib\libxil.a(lseek.o)
                              c:/xilinx/sdk/2017.2/gnu/aarch32/nt/gcc-arm-none-eabi/bin/../arm-none-eabi/libc/usr/lib/v7-a/fpv3/hard\libc.a(lib_a-lseekr.o) (_lseek)
../../slave_bsp/ps7_cortexa9_1/lib\libxil.a(xil_mmu.o)
                              ../../slave_bsp/ps7_cortexa9_1/lib\libmetal.a(sys.c.obj) (Xil_SetTlbAttributes)
../../slave_bsp/ps7_cortexa9_1/lib\libxil.a(errno.o)
                              ../../slave_bsp/ps7_cortexa9_1/lib\libxil.a(lseek.o) (__errno)
../../slave_bsp/ps7_cortexa9_1/lib\libmetal.a(device.c.obj)
                              ../../slave_bsp/ps7_cortexa9_1/lib\libopen_amp.a(hil.c.obj) (metal_device_close)
../../slave_bsp/ps7_cortexa9_1/lib\libmetal.a(io.c.obj)
                              ../../slave_bsp/ps7_cortexa9_1/lib\libopen_amp.a(remote_device.c.obj) (metal_memset_io)
../../slave_bsp/ps7_cortexa9_1/lib\libmetal.a(shmem.c.obj)
                              ../../slave_bsp/ps7_cortexa9_1/lib\libopen_amp.a(hil.c.obj) (metal_shmem_open)
../../slave_bsp/ps7_cortexa9_1/lib\libmetal.a(cache.c.obj)
                              ../../slave_bsp/ps7_cortexa9_1/lib\libopen_amp.a(rpmsg.c.obj) (metal_cache_flush)
../../slave_bsp/ps7_cortexa9_1/lib\libmetal.a(io.c.obj)
                              ../../slave_bsp/ps7_cortexa9_1/lib\libopen_amp.a(hil.c.obj) (metal_io_mem_map)
../../slave_bsp/ps7_cortexa9_1/lib\libmetal.a(sleep.c.obj)
                              ../../slave_bsp/ps7_cortexa9_1/lib\libopen_amp.a(rpmsg.c.obj) (metal_sleep_usec)
../../slave_bsp/ps7_cortexa9_1/lib\libmetal.a(shmem.c.obj)
                              ../../slave_bsp/ps7_cortexa9_1/lib\libmetal.a(shmem.c.obj) (metal_shmem_open_generic)
../../slave_bsp/ps7_cortexa9_1/lib\libopen_amp.a(rpmsg_retarget.c.obj)
                              c:/xilinx/sdk/2017.2/gnu/aarch32/nt/gcc-arm-none-eabi/bin/../arm-none-eabi/libc/usr/lib/v7-a/fpv3/hard\libc.a(lib_a-readr.o) (_read)
c:/xilinx/sdk/2017.2/gnu/aarch32/nt/gcc-arm-none-eabi/bin/../lib/gcc/arm-none-eabi/6.2.1/v7-a/fpv3/hard\libgcc.a(_aeabi_uldivmod.o)
                              c:/xilinx/sdk/2017.2/gnu/aarch32/nt/gcc-arm-none-eabi/bin/../arm-none-eabi/libc/usr/lib/v7-a/fpv3/hard\libc.a(lib_a-vfiprintf.o) (__aeabi_uldivmod)
c:/xilinx/sdk/2017.2/gnu/aarch32/nt/gcc-arm-none-eabi/bin/../lib/gcc/arm-none-eabi/6.2.1/v7-a/fpv3/hard\libgcc.a(_udivmoddi4.o)
                              c:/xilinx/sdk/2017.2/gnu/aarch32/nt/gcc-arm-none-eabi/bin/../lib/gcc/arm-none-eabi/6.2.1/v7-a/fpv3/hard\libgcc.a(_aeabi_uldivmod.o) (__udivmoddi4)

Allocating common symbols
Common symbol       size              file

_metal              0x20              ../../slave_bsp/ps7_cortexa9_1/lib\libmetal.a(init.c.obj)
errno               0x4               c:/xilinx/sdk/2017.2/gnu/aarch32/nt/gcc-arm-none-eabi/bin/../arm-none-eabi/libc/usr/lib/v7-a/fpv3/hard\libc.a(lib_a-reent.o)
UndefinedExceptionAddr
                    0x4               ../../slave_bsp/ps7_cortexa9_1/lib\libxil.a(xil_exception.o)
PrefetchAbortAddr   0x4               ../../slave_bsp/ps7_cortexa9_1/lib\libxil.a(xil_exception.o)
DataAbortAddr       0x4               ../../slave_bsp/ps7_cortexa9_1/lib\libxil.a(xil_exception.o)
Xil_AssertStatus    0x4               ../../slave_bsp/ps7_cortexa9_1/lib\libxil.a(xil_assert.o)

Discarded input sections

 .group         0x0000000000000000        0x8 ./src/echo_test.o
 .group         0x0000000000000000        0x8 ./src/echo_test.o
 .group         0x0000000000000000        0x8 ./src/echo_test.o
 .group         0x0000000000000000        0x8 ./src/echo_test.o
 .group         0x0000000000000000        0x8 ./src/echo_test.o
 .group         0x0000000000000000        0x8 ./src/echo_test.o
 .group         0x0000000000000000        0x8 ./src/echo_test.o
 .group         0x0000000000000000        0x8 ./src/echo_test.o
 .group         0x0000000000000000        0x8 ./src/echo_test.o
 .group         0x0000000000000000        0x8 ./src/echo_test.o
 .group         0x0000000000000000        0x8 ./src/echo_test.o
 .group         0x0000000000000000        0x8 ./src/echo_test.o
 .group         0x0000000000000000        0x8 ./src/echo_test.o
 .group         0x0000000000000000        0x8 ./src/echo_test.o
 .group         0x0000000000000000        0x8 ./src/echo_test.o
 .group         0x0000000000000000        0x8 ./src/echo_test.o
 .group         0x0000000000000000        0x8 ./src/echo_test.o
 .group         0x0000000000000000        0x8 ./src/echo_test.o
 .group         0x0000000000000000        0x8 ./src/echo_test.o
 .group         0x0000000000000000        0x8 ./src/echo_test.o
 .group         0x0000000000000000        0x8 ./src/echo_test.o
 .group         0x0000000000000000        0x8 ./src/echo_test.o
 .group         0x0000000000000000        0x8 ./src/echo_test.o
 .group         0x0000000000000000        0x8 ./src/echo_test.o
 .group         0x0000000000000000        0x8 ./src/echo_test.o
 .group         0x0000000000000000        0x8 ./src/echo_test.o
 .group         0x0000000000000000        0x8 ./src/echo_test.o
 .group         0x0000000000000000        0x8 ./src/echo_test.o
 .group         0x0000000000000000        0x8 ./src/echo_test.o
 .group         0x0000000000000000        0x8 ./src/echo_test.o
 .group         0x0000000000000000        0x8 ./src/echo_test.o
 .group         0x0000000000000000        0x8 ./src/echo_test.o
 .group         0x0000000000000000        0x8 ./src/echo_test.o
 .group         0x0000000000000000        0x8 ./src/echo_test.o
 .group         0x0000000000000000        0x8 ./src/echo_test.o
 .group         0x0000000000000000        0x8 ./src/echo_test.o
 .group         0x0000000000000000        0x8 ./src/echo_test.o
 .group         0x0000000000000000        0x8 ./src/echo_test.o
 .group         0x0000000000000000        0x8 ./src/echo_test.o
 .group         0x0000000000000000        0x8 ./src/echo_test.o
 .group         0x0000000000000000        0x8 ./src/echo_test.o
 .group         0x0000000000000000        0x8 ./src/echo_test.o
 .group         0x0000000000000000        0x8 ./src/echo_test.o
 .group         0x0000000000000000        0x8 ./src/echo_test.o
 .group         0x0000000000000000        0x8 ./src/echo_test.o
 .group         0x0000000000000000        0x8 ./src/echo_test.o
 .group         0x0000000000000000        0x8 ./src/echo_test.o
 .group         0x0000000000000000        0x8 ./src/echo_test.o
 .group         0x0000000000000000        0x8 ./src/echo_test.o
 .group         0x0000000000000000        0x8 ./src/echo_test.o
 .group         0x0000000000000000        0x8 ./src/echo_test.o
 .group         0x0000000000000000        0x8 ./src/echo_test.o
 .group         0x0000000000000000        0x8 ./src/echo_test.o
 .group         0x0000000000000000        0x8 ./src/echo_test.o
 .group         0x0000000000000000        0x8 ./src/echo_test.o
 .group         0x0000000000000000        0x8 ./src/echo_test.o
 .group         0x0000000000000000        0x8 ./src/echo_test.o
 .group         0x0000000000000000        0x8 ./src/echo_test.o
 .group         0x0000000000000000        0x8 ./src/echo_test.o
 .group         0x0000000000000000        0x8 ./src/echo_test.o
 .group         0x0000000000000000        0x8 ./src/echo_test.o
 .group         0x0000000000000000        0x8 ./src/echo_test.o
 .group         0x0000000000000000        0x8 ./src/echo_test.o
 .group         0x0000000000000000        0x8 ./src/echo_test.o
 .group         0x0000000000000000        0x8 ./src/echo_test.o
 .group         0x0000000000000000        0x8 ./src/echo_test.o
 .group         0x0000000000000000        0x8 ./src/echo_test.o
 .group         0x0000000000000000        0x8 ./src/echo_test.o
 .group         0x0000000000000000        0x8 ./src/echo_test.o
 .group         0x0000000000000000        0x8 ./src/echo_test.o
 .group         0x0000000000000000        0x8 ./src/echo_test.o
 .group         0x0000000000000000        0x8 ./src/echo_test.o
 .group         0x0000000000000000        0x8 ./src/echo_test.o
 .group         0x0000000000000000        0x8 ./src/echo_test.o
 .group         0x0000000000000000        0x8 ./src/echo_test.o
 .group         0x0000000000000000        0x8 ./src/echo_test.o
 .group         0x0000000000000000        0x8 ./src/helper.o
 .group         0x0000000000000000        0x8 ./src/helper.o
 .group         0x0000000000000000        0x8 ./src/helper.o
 .group         0x0000000000000000        0x8 ./src/helper.o
 .group         0x0000000000000000        0x8 ./src/helper.o
 .group         0x0000000000000000        0x8 ./src/helper.o
 .group         0x0000000000000000        0x8 ./src/helper.o
 .group         0x0000000000000000        0x8 ./src/helper.o
 .group         0x0000000000000000        0x8 ./src/helper.o
 .group         0x0000000000000000        0x8 ./src/helper.o
 .group         0x0000000000000000        0x8 ./src/helper.o
 .group         0x0000000000000000        0x8 ./src/helper.o
 .group         0x0000000000000000        0x8 ./src/helper.o
 .group         0x0000000000000000        0x8 ./src/helper.o
 .group         0x0000000000000000        0x8 ./src/helper.o
 .group         0x0000000000000000        0x8 ./src/helper.o
 .group         0x0000000000000000        0x8 ./src/helper.o
 .group         0x0000000000000000        0x8 ./src/helper.o
 .group         0x0000000000000000        0x8 ./src/helper.o
 .group         0x0000000000000000        0x8 ./src/helper.o
 .group         0x0000000000000000        0x8 ./src/helper.o
 .group         0x0000000000000000        0x8 ./src/helper.o
 .group         0x0000000000000000        0x8 ./src/helper.o
 .group         0x0000000000000000        0x8 ./src/helper.o
 .group         0x0000000000000000        0x8 ./src/helper.o
 .group         0x0000000000000000        0x8 ./src/helper.o
 .group         0x0000000000000000        0x8 ./src/helper.o
 .group         0x0000000000000000        0x8 ./src/helper.o
 .group         0x0000000000000000        0x8 ./src/helper.o
 .group         0x0000000000000000        0x8 ./src/helper.o
 .group         0x0000000000000000        0x8 ./src/helper.o
 .group         0x0000000000000000        0x8 ./src/helper.o
 .group         0x0000000000000000        0x8 ./src/helper.o
 .group         0x0000000000000000        0x8 ./src/helper.o
 .group         0x0000000000000000        0x8 ./src/helper.o
 .group         0x0000000000000000        0x8 ./src/helper.o
 .group         0x0000000000000000        0x8 ./src/helper.o
 .group         0x0000000000000000        0x8 ./src/helper.o
 .group         0x0000000000000000        0x8 ./src/helper.o
 .group         0x0000000000000000        0x8 ./src/helper.o
 .group         0x0000000000000000        0x8 ./src/helper.o
 .group         0x0000000000000000        0x8 ./src/helper.o
 .group         0x0000000000000000        0x8 ./src/helper.o
 .group         0x0000000000000000        0x8 ./src/helper.o
 .group         0x0000000000000000        0x8 ./src/helper.o
 .group         0x0000000000000000        0x8 ./src/helper.o
 .group         0x0000000000000000        0x8 ./src/helper.o
 .group         0x0000000000000000        0x8 ./src/helper.o
 .group         0x0000000000000000        0x8 ./src/helper.o
 .group         0x0000000000000000        0x8 ./src/helper.o
 .group         0x0000000000000000        0x8 ./src/helper.o
 .group         0x0000000000000000        0x8 ./src/helper.o
 .group         0x0000000000000000        0x8 ./src/helper.o
 .group         0x0000000000000000        0x8 ./src/helper.o
 .group         0x0000000000000000        0x8 ./src/helper.o
 .group         0x0000000000000000        0x8 ./src/helper.o
 .group         0x0000000000000000        0x8 ./src/helper.o
 .group         0x0000000000000000        0x8 ./src/helper.o
 .group         0x0000000000000000        0x8 ./src/helper.o
 .group         0x0000000000000000        0x8 ./src/helper.o
 .group         0x0000000000000000        0x8 ./src/helper.o
 .group         0x0000000000000000        0x8 ./src/helper.o
 .group         0x0000000000000000        0x8 ./src/helper.o
 .group         0x0000000000000000        0x8 ./src/helper.o
 .group         0x0000000000000000        0x8 ./src/helper.o
 .group         0x0000000000000000        0x8 ./src/helper.o
 .group         0x0000000000000000        0x8 ./src/helper.o
 .group         0x0000000000000000        0x8 ./src/helper.o
 .group         0x0000000000000000        0x8 ./src/helper.o
 .group         0x0000000000000000        0x8 ./src/helper.o
 .group         0x0000000000000000        0x8 ./src/helper.o
 .group         0x0000000000000000        0x8 ./src/helper.o
 .group         0x0000000000000000        0x8 ./src/helper.o
 .group         0x0000000000000000        0x8 ./src/helper.o
 .debug_macro   0x0000000000000000      0x8ce ./src/helper.o
 .debug_macro   0x0000000000000000       0x1c ./src/helper.o
 .debug_macro   0x0000000000000000      0x587 ./src/helper.o
 .debug_macro   0x0000000000000000      0x51a ./src/helper.o
 .debug_macro   0x0000000000000000       0x22 ./src/helper.o
 .debug_macro   0x0000000000000000       0xfd ./src/helper.o
 .debug_macro   0x0000000000000000       0x22 ./src/helper.o
 .debug_macro   0x0000000000000000      0x1df ./src/helper.o
 .debug_macro   0x0000000000000000      0x174 ./src/helper.o
 .debug_macro   0x0000000000000000       0x4a ./src/helper.o
 .debug_macro   0x0000000000000000      0x696 ./src/helper.o
 .debug_macro   0x0000000000000000       0x93 ./src/helper.o
 .debug_macro   0x0000000000000000       0x37 ./src/helper.o
 .debug_macro   0x0000000000000000      0x400 ./src/helper.o
 .debug_macro   0x0000000000000000       0x35 ./src/helper.o
 .debug_macro   0x0000000000000000       0x9c ./src/helper.o
 .debug_macro   0x0000000000000000      0x30d ./src/helper.o
 .debug_macro   0x0000000000000000       0xa6 ./src/helper.o
 .debug_macro   0x0000000000000000       0x52 ./src/helper.o
 .debug_macro   0x0000000000000000       0x16 ./src/helper.o
 .debug_macro   0x0000000000000000       0x43 ./src/helper.o
 .debug_macro   0x0000000000000000      0x187 ./src/helper.o
 .debug_macro   0x0000000000000000       0x10 ./src/helper.o
 .debug_macro   0x0000000000000000       0x35 ./src/helper.o
 .debug_macro   0x0000000000000000       0x58 ./src/helper.o
 .debug_macro   0x0000000000000000       0x54 ./src/helper.o
 .debug_macro   0x0000000000000000      0x2a2 ./src/helper.o
 .debug_macro   0x0000000000000000       0x35 ./src/helper.o
 .debug_macro   0x0000000000000000       0x16 ./src/helper.o
 .debug_macro   0x0000000000000000       0x16 ./src/helper.o
 .debug_macro   0x0000000000000000       0x29 ./src/helper.o
 .debug_macro   0x0000000000000000       0x10 ./src/helper.o
 .debug_macro   0x0000000000000000       0x16 ./src/helper.o
 .debug_macro   0x0000000000000000       0x1c ./src/helper.o
 .debug_macro   0x0000000000000000       0x10 ./src/helper.o
 .debug_macro   0x0000000000000000      0x241 ./src/helper.o
 .debug_macro   0x0000000000000000      0x1d3 ./src/helper.o
 .debug_macro   0x0000000000000000       0x22 ./src/helper.o
 .debug_macro   0x0000000000000000       0x3a ./src/helper.o
 .debug_macro   0x0000000000000000       0x10 ./src/helper.o
 .debug_macro   0x0000000000000000       0x40 ./src/helper.o
 .debug_macro   0x0000000000000000       0x6c ./src/helper.o
 .debug_macro   0x0000000000000000       0x16 ./src/helper.o
 .debug_macro   0x0000000000000000       0x10 ./src/helper.o
 .debug_macro   0x0000000000000000       0x41 ./src/helper.o
 .debug_macro   0x0000000000000000      0x122 ./src/helper.o
 .debug_macro   0x0000000000000000       0x10 ./src/helper.o
 .debug_macro   0x0000000000000000       0x16 ./src/helper.o
 .debug_macro   0x0000000000000000       0x2b ./src/helper.o
 .debug_macro   0x0000000000000000      0x118 ./src/helper.o
 .debug_macro   0x0000000000000000       0x1c ./src/helper.o
 .debug_macro   0x0000000000000000       0x16 ./src/helper.o
 .debug_macro   0x0000000000000000      0x182 ./src/helper.o
 .debug_macro   0x0000000000000000       0x10 ./src/helper.o
 .debug_macro   0x0000000000000000       0x34 ./src/helper.o
 .debug_macro   0x0000000000000000       0x1c ./src/helper.o
 .debug_macro   0x0000000000000000       0x4c ./src/helper.o
 .debug_macro   0x0000000000000000      0x118 ./src/helper.o
 .debug_macro   0x0000000000000000       0xaa ./src/helper.o
 .debug_macro   0x0000000000000000       0xad ./src/helper.o
 .debug_macro   0x0000000000000000       0x70 ./src/helper.o
 .debug_macro   0x0000000000000000       0x10 ./src/helper.o
 .debug_macro   0x0000000000000000       0x10 ./src/helper.o
 .debug_macro   0x0000000000000000       0x46 ./src/helper.o
 .group         0x0000000000000000        0x8 ./src/platform_info.o
 .group         0x0000000000000000        0x8 ./src/platform_info.o
 .group         0x0000000000000000        0x8 ./src/platform_info.o
 .group         0x0000000000000000        0x8 ./src/platform_info.o
 .group         0x0000000000000000        0x8 ./src/platform_info.o
 .group         0x0000000000000000        0x8 ./src/platform_info.o
 .group         0x0000000000000000        0x8 ./src/platform_info.o
 .group         0x0000000000000000        0x8 ./src/platform_info.o
 .group         0x0000000000000000        0x8 ./src/platform_info.o
 .group         0x0000000000000000        0x8 ./src/platform_info.o
 .group         0x0000000000000000        0x8 ./src/platform_info.o
 .group         0x0000000000000000        0x8 ./src/platform_info.o
 .group         0x0000000000000000        0x8 ./src/platform_info.o
 .group         0x0000000000000000        0x8 ./src/platform_info.o
 .group         0x0000000000000000        0x8 ./src/platform_info.o
 .group         0x0000000000000000        0x8 ./src/platform_info.o
 .group         0x0000000000000000        0x8 ./src/platform_info.o
 .group         0x0000000000000000        0x8 ./src/platform_info.o
 .group         0x0000000000000000        0x8 ./src/platform_info.o
 .group         0x0000000000000000        0x8 ./src/platform_info.o
 .group         0x0000000000000000        0x8 ./src/platform_info.o
 .group         0x0000000000000000        0x8 ./src/platform_info.o
 .group         0x0000000000000000        0x8 ./src/platform_info.o
 .group         0x0000000000000000        0x8 ./src/platform_info.o
 .group         0x0000000000000000        0x8 ./src/platform_info.o
 .group         0x0000000000000000        0x8 ./src/platform_info.o
 .group         0x0000000000000000        0x8 ./src/platform_info.o
 .group         0x0000000000000000        0x8 ./src/platform_info.o
 .group         0x0000000000000000        0x8 ./src/platform_info.o
 .group         0x0000000000000000        0x8 ./src/platform_info.o
 .group         0x0000000000000000        0x8 ./src/platform_info.o
 .group         0x0000000000000000        0x8 ./src/platform_info.o
 .group         0x0000000000000000        0x8 ./src/platform_info.o
 .group         0x0000000000000000        0x8 ./src/platform_info.o
 .group         0x0000000000000000        0x8 ./src/platform_info.o
 .group         0x0000000000000000        0x8 ./src/platform_info.o
 .group         0x0000000000000000        0x8 ./src/platform_info.o
 .group         0x0000000000000000        0x8 ./src/platform_info.o
 .group         0x0000000000000000        0x8 ./src/platform_info.o
 .group         0x0000000000000000        0x8 ./src/platform_info.o
 .group         0x0000000000000000        0x8 ./src/platform_info.o
 .group         0x0000000000000000        0x8 ./src/platform_info.o
 .group         0x0000000000000000        0x8 ./src/platform_info.o
 .group         0x0000000000000000        0x8 ./src/platform_info.o
 .group         0x0000000000000000        0x8 ./src/platform_info.o
 .group         0x0000000000000000        0x8 ./src/platform_info.o
 .group         0x0000000000000000        0x8 ./src/platform_info.o
 .group         0x0000000000000000        0x8 ./src/platform_info.o
 .group         0x0000000000000000        0x8 ./src/platform_info.o
 .group         0x0000000000000000        0x8 ./src/platform_info.o
 .group         0x0000000000000000        0x8 ./src/platform_info.o
 .group         0x0000000000000000        0x8 ./src/platform_info.o
 .group         0x0000000000000000        0x8 ./src/platform_info.o
 .group         0x0000000000000000        0x8 ./src/platform_info.o
 .group         0x0000000000000000        0x8 ./src/platform_info.o
 .group         0x0000000000000000        0x8 ./src/platform_info.o
 .group         0x0000000000000000        0x8 ./src/platform_info.o
 .group         0x0000000000000000        0x8 ./src/platform_info.o
 .group         0x0000000000000000        0x8 ./src/platform_info.o
 .group         0x0000000000000000        0x8 ./src/platform_info.o
 .group         0x0000000000000000        0x8 ./src/platform_info.o
 .group         0x0000000000000000        0x8 ./src/platform_info.o
 .group         0x0000000000000000        0x8 ./src/platform_info.o
 .group         0x0000000000000000        0x8 ./src/platform_info.o
 .group         0x0000000000000000        0x8 ./src/platform_info.o
 .group         0x0000000000000000        0x8 ./src/platform_info.o
 .group         0x0000000000000000        0x8 ./src/platform_info.o
 .group         0x0000000000000000        0x8 ./src/platform_info.o
 .group         0x0000000000000000        0x8 ./src/platform_info.o
 .group         0x0000000000000000        0x8 ./src/platform_info.o
 .group         0x0000000000000000        0x8 ./src/platform_info.o
 .group         0x0000000000000000        0x8 ./src/platform_info.o
 .group         0x0000000000000000        0x8 ./src/platform_info.o
 .debug_macro   0x0000000000000000      0x8ce ./src/platform_info.o
 .debug_macro   0x0000000000000000       0x22 ./src/platform_info.o
 .debug_macro   0x0000000000000000       0x87 ./src/platform_info.o
 .debug_macro   0x0000000000000000       0x44 ./src/platform_info.o
 .debug_macro   0x0000000000000000       0xfd ./src/platform_info.o
 .debug_macro   0x0000000000000000       0x22 ./src/platform_info.o
 .debug_macro   0x0000000000000000      0x1df ./src/platform_info.o
 .debug_macro   0x0000000000000000       0x34 ./src/platform_info.o
 .debug_macro   0x0000000000000000       0x58 ./src/platform_info.o
 .debug_macro   0x0000000000000000       0x35 ./src/platform_info.o
 .debug_macro   0x0000000000000000       0x9c ./src/platform_info.o
 .debug_macro   0x0000000000000000      0x30d ./src/platform_info.o
 .debug_macro   0x0000000000000000       0x52 ./src/platform_info.o
 .debug_macro   0x0000000000000000       0x16 ./src/platform_info.o
 .debug_macro   0x0000000000000000       0x43 ./src/platform_info.o
 .debug_macro   0x0000000000000000      0x187 ./src/platform_info.o
 .debug_macro   0x0000000000000000       0x22 ./src/platform_info.o
 .debug_macro   0x0000000000000000       0x3a ./src/platform_info.o
 .debug_macro   0x0000000000000000       0x10 ./src/platform_info.o
 .debug_macro   0x0000000000000000       0x40 ./src/platform_info.o
 .debug_macro   0x0000000000000000       0x6c ./src/platform_info.o
 .debug_macro   0x0000000000000000       0x16 ./src/platform_info.o
 .debug_macro   0x0000000000000000      0x182 ./src/platform_info.o
 .debug_macro   0x0000000000000000       0x10 ./src/platform_info.o
 .debug_macro   0x0000000000000000       0x16 ./src/platform_info.o
 .debug_macro   0x0000000000000000       0x35 ./src/platform_info.o
 .debug_macro   0x0000000000000000       0x16 ./src/platform_info.o
 .debug_macro   0x0000000000000000       0x29 ./src/platform_info.o
 .debug_macro   0x0000000000000000       0x10 ./src/platform_info.o
 .debug_macro   0x0000000000000000       0x16 ./src/platform_info.o
 .debug_macro   0x0000000000000000       0x1c ./src/platform_info.o
 .debug_macro   0x0000000000000000       0x10 ./src/platform_info.o
 .debug_macro   0x0000000000000000      0x241 ./src/platform_info.o
 .debug_macro   0x0000000000000000      0x1d3 ./src/platform_info.o
 .debug_macro   0x0000000000000000       0x16 ./src/platform_info.o
 .debug_macro   0x0000000000000000       0x10 ./src/platform_info.o
 .debug_macro   0x0000000000000000       0x41 ./src/platform_info.o
 .debug_macro   0x0000000000000000      0x122 ./src/platform_info.o
 .debug_macro   0x0000000000000000       0x10 ./src/platform_info.o
 .debug_macro   0x0000000000000000       0x16 ./src/platform_info.o
 .debug_macro   0x0000000000000000       0x2b ./src/platform_info.o
 .debug_macro   0x0000000000000000      0x118 ./src/platform_info.o
 .debug_macro   0x0000000000000000       0x4a ./src/platform_info.o
 .debug_macro   0x0000000000000000       0x37 ./src/platform_info.o
 .debug_macro   0x0000000000000000      0x400 ./src/platform_info.o
 .debug_macro   0x0000000000000000       0x1c ./src/platform_info.o
 .debug_macro   0x0000000000000000      0x587 ./src/platform_info.o
 .debug_macro   0x0000000000000000      0x51a ./src/platform_info.o
 .debug_macro   0x0000000000000000      0x696 ./src/platform_info.o
 .debug_macro   0x0000000000000000       0x93 ./src/platform_info.o
 .debug_macro   0x0000000000000000       0x54 ./src/platform_info.o
 .debug_macro   0x0000000000000000       0x81 ./src/platform_info.o
 .debug_macro   0x0000000000000000      0x2a2 ./src/platform_info.o
 .debug_macro   0x0000000000000000       0x35 ./src/platform_info.o
 .debug_macro   0x0000000000000000       0x10 ./src/platform_info.o
 .debug_macro   0x0000000000000000       0x16 ./src/platform_info.o
 .debug_macro   0x0000000000000000       0x1c ./src/platform_info.o
 .debug_macro   0x0000000000000000       0x4c ./src/platform_info.o
 .debug_macro   0x0000000000000000      0x118 ./src/platform_info.o
 .debug_macro   0x0000000000000000       0xaa ./src/platform_info.o
 .debug_macro   0x0000000000000000       0xad ./src/platform_info.o
 .debug_macro   0x0000000000000000       0x70 ./src/platform_info.o
 .debug_macro   0x0000000000000000       0x10 ./src/platform_info.o
 .debug_macro   0x0000000000000000       0x10 ./src/platform_info.o
 .debug_macro   0x0000000000000000       0x46 ./src/platform_info.o
 .debug_macro   0x0000000000000000       0x1c ./src/platform_info.o
 .group         0x0000000000000000        0x8 ./src/rsc_table.o
 .group         0x0000000000000000        0x8 ./src/rsc_table.o
 .group         0x0000000000000000        0x8 ./src/rsc_table.o
 .group         0x0000000000000000        0x8 ./src/rsc_table.o
 .group         0x0000000000000000        0x8 ./src/rsc_table.o
 .group         0x0000000000000000        0x8 ./src/rsc_table.o
 .group         0x0000000000000000        0x8 ./src/rsc_table.o
 .group         0x0000000000000000        0x8 ./src/rsc_table.o
 .group         0x0000000000000000        0x8 ./src/rsc_table.o
 .group         0x0000000000000000        0x8 ./src/rsc_table.o
 .group         0x0000000000000000        0x8 ./src/rsc_table.o
 .group         0x0000000000000000        0x8 ./src/rsc_table.o
 .group         0x0000000000000000        0x8 ./src/rsc_table.o
 .group         0x0000000000000000        0x8 ./src/rsc_table.o
 .group         0x0000000000000000        0x8 ./src/rsc_table.o
 .group         0x0000000000000000        0x8 ./src/rsc_table.o
 .group         0x0000000000000000        0x8 ./src/rsc_table.o
 .group         0x0000000000000000        0x8 ./src/rsc_table.o
 .group         0x0000000000000000        0x8 ./src/rsc_table.o
 .group         0x0000000000000000        0x8 ./src/rsc_table.o
 .group         0x0000000000000000        0x8 ./src/rsc_table.o
 .group         0x0000000000000000        0x8 ./src/rsc_table.o
 .group         0x0000000000000000        0x8 ./src/rsc_table.o
 .group         0x0000000000000000        0x8 ./src/rsc_table.o
 .group         0x0000000000000000        0x8 ./src/rsc_table.o
 .group         0x0000000000000000        0x8 ./src/rsc_table.o
 .group         0x0000000000000000        0x8 ./src/rsc_table.o
 .group         0x0000000000000000        0x8 ./src/rsc_table.o
 .group         0x0000000000000000        0x8 ./src/rsc_table.o
 .group         0x0000000000000000        0x8 ./src/rsc_table.o
 .group         0x0000000000000000        0x8 ./src/rsc_table.o
 .group         0x0000000000000000        0x8 ./src/rsc_table.o
 .group         0x0000000000000000        0x8 ./src/rsc_table.o
 .group         0x0000000000000000        0x8 ./src/rsc_table.o
 .group         0x0000000000000000        0x8 ./src/rsc_table.o
 .group         0x0000000000000000        0x8 ./src/rsc_table.o
 .group         0x0000000000000000        0x8 ./src/rsc_table.o
 .group         0x0000000000000000        0x8 ./src/rsc_table.o
 .group         0x0000000000000000        0x8 ./src/rsc_table.o
 .group         0x0000000000000000        0x8 ./src/rsc_table.o
 .group         0x0000000000000000        0x8 ./src/rsc_table.o
 .group         0x0000000000000000        0x8 ./src/rsc_table.o
 .group         0x0000000000000000        0x8 ./src/rsc_table.o
 .group         0x0000000000000000        0x8 ./src/rsc_table.o
 .group         0x0000000000000000        0x8 ./src/rsc_table.o
 .group         0x0000000000000000        0x8 ./src/rsc_table.o
 .group         0x0000000000000000        0x8 ./src/rsc_table.o
 .group         0x0000000000000000        0x8 ./src/rsc_table.o
 .group         0x0000000000000000        0x8 ./src/rsc_table.o
 .group         0x0000000000000000        0x8 ./src/rsc_table.o
 .group         0x0000000000000000        0x8 ./src/rsc_table.o
 .group         0x0000000000000000        0x8 ./src/rsc_table.o
 .group         0x0000000000000000        0x8 ./src/rsc_table.o
 .group         0x0000000000000000        0x8 ./src/rsc_table.o
 .group         0x0000000000000000        0x8 ./src/rsc_table.o
 .group         0x0000000000000000        0x8 ./src/rsc_table.o
 .group         0x0000000000000000        0x8 ./src/rsc_table.o
 .group         0x0000000000000000        0x8 ./src/rsc_table.o
 .group         0x0000000000000000        0x8 ./src/rsc_table.o
 .group         0x0000000000000000        0x8 ./src/rsc_table.o
 .group         0x0000000000000000        0x8 ./src/rsc_table.o
 .group         0x0000000000000000        0x8 ./src/rsc_table.o
 .group         0x0000000000000000        0x8 ./src/rsc_table.o
 .group         0x0000000000000000        0x8 ./src/rsc_table.o
 .group         0x0000000000000000        0x8 ./src/rsc_table.o
 .group         0x0000000000000000        0x8 ./src/rsc_table.o
 .group         0x0000000000000000        0x8 ./src/rsc_table.o
 .group         0x0000000000000000        0x8 ./src/rsc_table.o
 .group         0x0000000000000000        0x8 ./src/rsc_table.o
 .group         0x0000000000000000        0x8 ./src/rsc_table.o
 .group         0x0000000000000000        0x8 ./src/rsc_table.o
 .group         0x0000000000000000        0x8 ./src/rsc_table.o
 .group         0x0000000000000000        0x8 ./src/rsc_table.o
 .group         0x0000000000000000        0x8 ./src/rsc_table.o
 .group         0x0000000000000000        0x8 ./src/rsc_table.o
 .group         0x0000000000000000        0x8 ./src/rsc_table.o
 .group         0x0000000000000000        0x8 ./src/rsc_table.o
 .debug_macro   0x0000000000000000      0x8ce ./src/rsc_table.o
 .debug_macro   0x0000000000000000       0x16 ./src/rsc_table.o
 .debug_macro   0x0000000000000000       0x22 ./src/rsc_table.o
 .debug_macro   0x0000000000000000       0x52 ./src/rsc_table.o
 .debug_macro   0x0000000000000000       0x8d ./src/rsc_table.o
 .debug_macro   0x0000000000000000       0x35 ./src/rsc_table.o
 .debug_macro   0x0000000000000000       0x9c ./src/rsc_table.o
 .debug_macro   0x0000000000000000       0x16 ./src/rsc_table.o
 .debug_macro   0x0000000000000000       0x4a ./src/rsc_table.o
 .debug_macro   0x0000000000000000       0x97 ./src/rsc_table.o
 .debug_macro   0x0000000000000000      0x30d ./src/rsc_table.o
 .debug_macro   0x0000000000000000       0xfd ./src/rsc_table.o
 .debug_macro   0x0000000000000000       0x10 ./src/rsc_table.o
 .debug_macro   0x0000000000000000       0x52 ./src/rsc_table.o
 .debug_macro   0x0000000000000000       0x16 ./src/rsc_table.o
 .debug_macro   0x0000000000000000       0x43 ./src/rsc_table.o
 .debug_macro   0x0000000000000000      0x187 ./src/rsc_table.o
 .debug_macro   0x0000000000000000       0x22 ./src/rsc_table.o
 .debug_macro   0x0000000000000000       0x22 ./src/rsc_table.o
 .debug_macro   0x0000000000000000       0x3a ./src/rsc_table.o
 .debug_macro   0x0000000000000000       0x10 ./src/rsc_table.o
 .debug_macro   0x0000000000000000       0x40 ./src/rsc_table.o
 .debug_macro   0x0000000000000000       0x6c ./src/rsc_table.o
 .debug_macro   0x0000000000000000       0x16 ./src/rsc_table.o
 .debug_macro   0x0000000000000000      0x182 ./src/rsc_table.o
 .debug_macro   0x0000000000000000       0x10 ./src/rsc_table.o
 .debug_macro   0x0000000000000000       0xfd ./src/rsc_table.o
 .debug_macro   0x0000000000000000      0x1df ./src/rsc_table.o
 .debug_macro   0x0000000000000000       0x34 ./src/rsc_table.o
 .debug_macro   0x0000000000000000       0x16 ./src/rsc_table.o
 .debug_macro   0x0000000000000000       0x35 ./src/rsc_table.o
 .debug_macro   0x0000000000000000       0x16 ./src/rsc_table.o
 .debug_macro   0x0000000000000000       0x29 ./src/rsc_table.o
 .debug_macro   0x0000000000000000       0x10 ./src/rsc_table.o
 .debug_macro   0x0000000000000000       0x16 ./src/rsc_table.o
 .debug_macro   0x0000000000000000       0x1c ./src/rsc_table.o
 .debug_macro   0x0000000000000000       0x10 ./src/rsc_table.o
 .debug_macro   0x0000000000000000      0x241 ./src/rsc_table.o
 .debug_macro   0x0000000000000000      0x1d3 ./src/rsc_table.o
 .debug_macro   0x0000000000000000       0x16 ./src/rsc_table.o
 .debug_macro   0x0000000000000000       0x10 ./src/rsc_table.o
 .debug_macro   0x0000000000000000       0x41 ./src/rsc_table.o
 .debug_macro   0x0000000000000000      0x122 ./src/rsc_table.o
 .debug_macro   0x0000000000000000       0x10 ./src/rsc_table.o
 .debug_macro   0x0000000000000000       0x16 ./src/rsc_table.o
 .debug_macro   0x0000000000000000       0x2b ./src/rsc_table.o
 .debug_macro   0x0000000000000000      0x118 ./src/rsc_table.o
 .debug_macro   0x0000000000000000       0x52 ./src/rsc_table.o
 .debug_macro   0x0000000000000000       0x16 ./src/rsc_table.o
 .debug_macro   0x0000000000000000       0x4a ./src/rsc_table.o
 .debug_macro   0x0000000000000000       0x37 ./src/rsc_table.o
 .debug_macro   0x0000000000000000      0x400 ./src/rsc_table.o
 .debug_macro   0x0000000000000000       0xac ./src/rsc_table.o
 .debug_macro   0x0000000000000000       0x1c ./src/rsc_table.o
 .debug_macro   0x0000000000000000      0x587 ./src/rsc_table.o
 .debug_macro   0x0000000000000000      0x51a ./src/rsc_table.o
 .debug_macro   0x0000000000000000      0x696 ./src/rsc_table.o
 .debug_macro   0x0000000000000000       0x93 ./src/rsc_table.o
 .debug_macro   0x0000000000000000       0x54 ./src/rsc_table.o
 .debug_macro   0x0000000000000000       0x81 ./src/rsc_table.o
 .debug_macro   0x0000000000000000      0x2a2 ./src/rsc_table.o
 .debug_macro   0x0000000000000000       0x35 ./src/rsc_table.o
 .debug_macro   0x0000000000000000       0x10 ./src/rsc_table.o
 .debug_macro   0x0000000000000000       0x16 ./src/rsc_table.o
 .debug_macro   0x0000000000000000       0x1c ./src/rsc_table.o
 .debug_macro   0x0000000000000000       0x4c ./src/rsc_table.o
 .debug_macro   0x0000000000000000      0x118 ./src/rsc_table.o
 .debug_macro   0x0000000000000000       0xaa ./src/rsc_table.o
 .debug_macro   0x0000000000000000       0xad ./src/rsc_table.o
 .debug_macro   0x0000000000000000       0x70 ./src/rsc_table.o
 .debug_macro   0x0000000000000000       0x10 ./src/rsc_table.o
 .debug_macro   0x0000000000000000       0x10 ./src/rsc_table.o
 .debug_macro   0x0000000000000000       0x46 ./src/rsc_table.o
 .debug_macro   0x0000000000000000       0x22 ./src/rsc_table.o
 .debug_macro   0x0000000000000000       0xac ./src/rsc_table.o
 .debug_macro   0x0000000000000000       0x22 ./src/rsc_table.o
 .debug_macro   0x0000000000000000       0xa3 ./src/rsc_table.o

Memory Configuration

Name             Origin             Length             Attributes
ps7_ddr_0_S_AXI_BASEADDR 0x0000000000100000 0x0000000000100000
ps7_ram_0_S_AXI_BASEADDR 0x0000000000000000 0x0000000000030000
ps7_ram_1_S_AXI_BASEADDR 0x00000000ffff0000 0x000000000000fe00
*default*        0x0000000000000000 0xffffffffffffffff

Linker script and memory map

LOAD c:/xilinx/sdk/2017.2/gnu/aarch32/nt/gcc-arm-none-eabi/bin/../lib/gcc/arm-none-eabi/6.2.1/v7-a/fpv3/hard/crti.o
LOAD c:/xilinx/sdk/2017.2/gnu/aarch32/nt/gcc-arm-none-eabi/bin/../lib/gcc/arm-none-eabi/6.2.1/v7-a/fpv3/hard/crtbegin.o
                0x0000000000002000                _STACK_SIZE = DEFINED (_STACK_SIZE)?_STACK_SIZE:0x2000
                0x0000000000004000                _HEAP_SIZE = DEFINED (_HEAP_SIZE)?_HEAP_SIZE:0x4000
                0x0000000000000400                _ABORT_STACK_SIZE = DEFINED (_ABORT_STACK_SIZE)?_ABORT_STACK_SIZE:0x400
                0x0000000000000800                _SUPERVISOR_STACK_SIZE = DEFINED (_SUPERVISOR_STACK_SIZE)?_SUPERVISOR_STACK_SIZE:0x800
                0x0000000000001000                _IRQ_STACK_SIZE = DEFINED (_IRQ_STACK_SIZE)?_IRQ_STACK_SIZE:0x1000
                0x0000000000000400                _FIQ_STACK_SIZE = DEFINED (_FIQ_STACK_SIZE)?_FIQ_STACK_SIZE:0x400
                0x0000000000000400                _UNDEF_STACK_SIZE = DEFINED (_UNDEF_STACK_SIZE)?_UNDEF_STACK_SIZE:0x400

.text           0x0000000000100000    0x1b55c
                0x0000000000000000                _binary_firmware1_start = 0x0
                0x0000000000000000                _binary_firmware1_end = 0x0
                0x0000000000000000                _binary_firmware2_start = 0x0
                0x0000000000000000                _binary_firmware2_end = 0x0
 *(.vectors)
 .vectors       0x0000000000100000      0x12c ../../slave_bsp/ps7_cortexa9_1/lib\libxil.a(asm_vectors.o)
                0x0000000000100000                _vector_table
 *(.boot)
 .boot          0x000000000010012c      0x2cc ../../slave_bsp/ps7_cortexa9_1/lib\libxil.a(boot.o)
                0x000000000010012c                _prestart
                0x000000000010012c                _boot
 *(.text)
 .text          0x00000000001003f8        0x0 c:/xilinx/sdk/2017.2/gnu/aarch32/nt/gcc-arm-none-eabi/bin/../lib/gcc/arm-none-eabi/6.2.1/v7-a/fpv3/hard/crti.o
 .text          0x00000000001003f8      0x108 c:/xilinx/sdk/2017.2/gnu/aarch32/nt/gcc-arm-none-eabi/bin/../lib/gcc/arm-none-eabi/6.2.1/v7-a/fpv3/hard/crtbegin.o
 .text          0x0000000000100500      0x4b0 ./src/echo_test.o
                0x00000000001006e8                app
                0x00000000001008e4                main
 .text          0x00000000001009b0      0x17c ./src/helper.o
                0x0000000000100ac8                init_system
                0x0000000000100b08                cleanup_system
 .text          0x0000000000100b2c       0xc0 ./src/platform_info.o
                0x0000000000100b2c                platform_create_proc
 .text          0x0000000000100bec       0x38 ./src/rsc_table.o
                0x0000000000100bec                get_resource_table
 .text          0x0000000000100c24     0x146c ../../slave_bsp/ps7_cortexa9_1/lib\libxil.a(xscugic.o)
                0x0000000000100ebc                XScuGic_CfgInitialize
                0x00000000001010c8                XScuGic_Connect
                0x000000000010125c                XScuGic_Disconnect
                0x00000000001013d4                XScuGic_Enable
                0x0000000000101508                XScuGic_Disable
                0x000000000010163c                XScuGic_SoftwareIntr
                0x0000000000101838                XScuGic_SetPriorityTriggerType
                0x0000000000101b10                XScuGic_GetPriorityTriggerType
                0x0000000000101d40                XScuGic_InterruptMaptoCpu
                0x0000000000101e14                XScuGic_Stop
                0x0000000000102000                XScuGic_SetCpuID
                0x000000000010206c                XScuGic_GetCpuID
 .text          0x0000000000102090      0x150 ../../slave_bsp/ps7_cortexa9_1/lib\libxil.a(xscugic_intr.o)
                0x00000000001020f0                XScuGic_InterruptHandler
 .text          0x00000000001021e0       0x9c ../../slave_bsp/ps7_cortexa9_1/lib\libxil.a(xscugic_sinit.o)
                0x00000000001021e0                XScuGic_LookupConfig
 .text          0x000000000010227c        0x0 ../../slave_bsp/ps7_cortexa9_1/lib\libxil.a(asm_vectors.o)
 .text          0x000000000010227c        0x0 ../../slave_bsp/ps7_cortexa9_1/lib\libxil.a(boot.o)
 .text          0x000000000010227c        0x0 ../../slave_bsp/ps7_cortexa9_1/lib\libxil.a(translation_table.o)
 .text          0x000000000010227c      0x120 ../../slave_bsp/ps7_cortexa9_1/lib\libxil.a(vectors.o)
                0x000000000010227c                FIQInterrupt
                0x00000000001022ac                IRQInterrupt
                0x00000000001022dc                UndefinedException
                0x000000000010230c                SWInterrupt
                0x000000000010233c                DataAbortInterrupt
                0x000000000010236c                PrefetchAbortInterrupt
 .text          0x000000000010239c       0x74 ../../slave_bsp/ps7_cortexa9_1/lib\libxil.a(xil-crt0.o)
                0x00000000001023b0                _start
 .text          0x0000000000102410       0xb4 ../../slave_bsp/ps7_cortexa9_1/lib\libxil.a(xil_assert.o)
                0x0000000000102410                Xil_Assert
                0x0000000000102474                Xil_AssertSetCallback
                0x00000000001024a4                XNullHandler
 .text          0x00000000001024c4      0xce4 ../../slave_bsp/ps7_cortexa9_1/lib\libxil.a(xil_cache.o)
                0x00000000001024c4                Xil_DCacheEnable
                0x00000000001024d8                Xil_DCacheDisable
                0x00000000001024ec                Xil_DCacheInvalidate
                0x0000000000102534                Xil_DCacheInvalidateLine
                0x0000000000102584                Xil_DCacheInvalidateRange
                0x00000000001026c0                Xil_DCacheFlush
                0x0000000000102708                Xil_DCacheFlushLine
                0x0000000000102758                Xil_DCacheFlushRange
                0x0000000000102824                Xil_DCacheStoreLine
                0x0000000000102874                Xil_ICacheEnable
                0x0000000000102888                Xil_ICacheDisable
                0x000000000010289c                Xil_ICacheInvalidate
                0x00000000001028e4                Xil_ICacheInvalidateLine
                0x0000000000102934                Xil_ICacheInvalidateRange
                0x0000000000102a08                Xil_L1DCacheEnable
                0x0000000000102a54                Xil_L1DCacheDisable
                0x0000000000102a90                Xil_L1DCacheInvalidate
                0x0000000000102c38                Xil_L1DCacheInvalidateLine
                0x0000000000102c70                Xil_L1DCacheInvalidateRange
                0x0000000000102d38                Xil_L1DCacheFlush
                0x0000000000102ea8                Xil_L1DCacheFlushLine
                0x0000000000102ee0                Xil_L1DCacheFlushRange
                0x0000000000102fa8                Xil_L1DCacheStoreLine
                0x0000000000102fe0                Xil_L1ICacheEnable
                0x0000000000103034                Xil_L1ICacheDisable
                0x000000000010307c                Xil_L1ICacheInvalidate
                0x00000000001030a8                Xil_L1ICacheInvalidateLine
                0x00000000001030e0                Xil_L1ICacheInvalidateRange
 .text          0x00000000001031a8       0xf0 ../../slave_bsp/ps7_cortexa9_1/lib\libxil.a(xil_exception.o)
                0x00000000001031bc                Xil_ExceptionInit
                0x00000000001031d4                Xil_ExceptionRegisterHandler
                0x000000000010322c                Xil_ExceptionRemoveHandler
                0x000000000010325c                Xil_DataAbortHandler
                0x0000000000103270                Xil_PrefetchAbortHandler
                0x0000000000103284                Xil_UndefinedExceptionHandler
 .text          0x0000000000103298      0x9ec ../../slave_bsp/ps7_cortexa9_1/lib\libxil.a(xil_printf.o)
                0x0000000000103744                xil_printf
 .text          0x0000000000103c84        0x0 ../../slave_bsp/ps7_cortexa9_1/lib\libxil.a(xscugic_g.o)
 .text          0x0000000000103c84       0x3c ../../slave_bsp/ps7_cortexa9_1/lib\libxil.a(cpu_init.o)
                0x0000000000103c84                __cpu_init
 .text          0x0000000000103cc0       0x34 ../../slave_bsp/ps7_cortexa9_1/lib\libxil.a(outbyte.o)
                0x0000000000103cc0                outbyte
 .text          0x0000000000103cf4      0x1fc ../../slave_bsp/ps7_cortexa9_1/lib\libxil.a(xuartps_hw.o)
                0x0000000000103d54                XUartPs_SendByte
                0x0000000000103db4                XUartPs_RecvByte
                0x0000000000103e10                XUartPs_ResetHw
 .text          0x0000000000103ef0      0x20c c:/xilinx/sdk/2017.2/gnu/aarch32/nt/gcc-arm-none-eabi/bin/../lib/gcc/arm-none-eabi/6.2.1/v7-a/fpv3/hard\libgcc.a(_udivsi3.o)
                0x0000000000103ef0                __aeabi_uidiv
                0x0000000000103ef0                __udivsi3
                0x00000000001040dc                __aeabi_uidivmod
 .text          0x00000000001040fc        0x4 c:/xilinx/sdk/2017.2/gnu/aarch32/nt/gcc-arm-none-eabi/bin/../lib/gcc/arm-none-eabi/6.2.1/v7-a/fpv3/hard\libgcc.a(_dvmd_tls.o)
                0x00000000001040fc                __aeabi_idiv0
                0x00000000001040fc                __aeabi_ldiv0
 .text          0x0000000000104100       0x18 c:/xilinx/sdk/2017.2/gnu/aarch32/nt/gcc-arm-none-eabi/bin/../arm-none-eabi/libc/usr/lib/v7-a/fpv3/hard\libc.a(lib_a-ctype_.o)
                0x0000000000104100                __set_ctype
 .text          0x0000000000104118       0x34 c:/xilinx/sdk/2017.2/gnu/aarch32/nt/gcc-arm-none-eabi/bin/../arm-none-eabi/libc/usr/lib/v7-a/fpv3/hard\libc.a(lib_a-exit.o)
                0x0000000000104118                exit
 .text          0x000000000010414c       0x40 c:/xilinx/sdk/2017.2/gnu/aarch32/nt/gcc-arm-none-eabi/bin/../arm-none-eabi/libc/usr/lib/v7-a/fpv3/hard\libc.a(lib_a-fini.o)
                0x000000000010414c                __libc_fini_array
 .text          0x000000000010418c        0x0 c:/xilinx/sdk/2017.2/gnu/aarch32/nt/gcc-arm-none-eabi/bin/../arm-none-eabi/libc/usr/lib/v7-a/fpv3/hard\libc.a(lib_a-impure.o)
 .text          0x000000000010418c       0x78 c:/xilinx/sdk/2017.2/gnu/aarch32/nt/gcc-arm-none-eabi/bin/../arm-none-eabi/libc/usr/lib/v7-a/fpv3/hard\libc.a(lib_a-init.o)
                0x000000000010418c                __libc_init_array
 *fill*         0x0000000000104204       0x3c 
 .text          0x0000000000104240       0xdc c:/xilinx/sdk/2017.2/gnu/aarch32/nt/gcc-arm-none-eabi/bin/../arm-none-eabi/libc/usr/lib/v7-a/fpv3/hard\libc.a(lib_a-strlen.o)
                0x0000000000104240                strlen
 .text          0x000000000010431c      0x164 c:/xilinx/sdk/2017.2/gnu/aarch32/nt/gcc-arm-none-eabi/bin/../arm-none-eabi/libc/usr/lib/v7-a/fpv3/hard\libc.a(lib_a-__call_atexit.o)
                0x000000000010431c                __call_exitprocs
 .text          0x0000000000104480       0x14 ../../slave_bsp/ps7_cortexa9_1/lib\libxil.a(_exit.o)
                0x0000000000104480                _exit
 .text          0x0000000000104494      0x10c ../../slave_bsp/ps7_cortexa9_1/lib\libmetal.a(init.c.obj)
                0x00000000001044d0                metal_init
                0x0000000000104578                metal_finish
 .text          0x00000000001045a0       0xd8 ../../slave_bsp/ps7_cortexa9_1/lib\libmetal.a(log.c.obj)
                0x00000000001045a0                metal_default_log_handler
                0x00000000001045cc                metal_set_log_handler
                0x00000000001045fc                metal_get_log_handler
                0x0000000000104620                metal_set_log_level
                0x0000000000104654                metal_get_log_level
 .text          0x0000000000104678       0x38 ../../slave_bsp/ps7_cortexa9_1/lib\libmetal.a(init.c.obj)
                0x0000000000104678                metal_sys_init
                0x000000000010469c                metal_sys_finish
 .text          0x00000000001046b0      0x8e4 ../../slave_bsp/ps7_cortexa9_1/lib\libmetal.a(irq.c.obj)
                0x0000000000104870                metal_irq_register
                0x0000000000104db8                metal_irq_save_disable
                0x0000000000104e00                metal_irq_restore_enable
                0x0000000000104e50                metal_irq_enable
                0x0000000000104e74                metal_irq_disable
                0x0000000000104e98                metal_irq_isr
                0x0000000000104f58                metal_irq_init
                0x0000000000104f78                metal_irq_deinit
 .text          0x0000000000104f94      0x2b0 ../../slave_bsp/ps7_cortexa9_1/lib\libmetal.a(sys.c.obj)
                0x0000000000104f94                sys_irq_restore_enable
                0x0000000000104fe4                sys_irq_save_disable
                0x0000000000105068                metal_machine_cache_flush
                0x00000000001050d8                metal_machine_cache_invalidate
                0x0000000000105148                metal_generic_default_poll
                0x0000000000105164                metal_machine_io_mem_map
 .text          0x0000000000105244     0x1408 ../../slave_bsp/ps7_cortexa9_1/lib\libopen_amp.a(hil.c.obj)
                0x0000000000105558                hil_create_proc
                0x0000000000105680                hil_delete_proc
                0x00000000001058a4                hil_init_proc
                0x000000000010592c                hil_get_chnl_info
                0x000000000010596c                hil_notified
                0x0000000000105a88                hil_get_vdev_info
                0x0000000000105ab0                hil_get_vring_info
                0x0000000000105c48                hil_get_shm_info
                0x0000000000105c70                hil_free_vqs
                0x0000000000105d4c                hil_enable_vdev_notification
                0x0000000000105db4                hil_enable_vring_notifications
                0x0000000000105e50                hil_vdev_notify
                0x0000000000105eb8                hil_vring_notify
                0x0000000000105f48                hil_get_status
                0x0000000000105f6c                hil_set_status
                0x0000000000105f90                hil_boot_cpu
                0x0000000000105fe0                hil_shutdown_cpu
                0x0000000000106024                hil_get_firmware
                0x000000000010605c                hil_poll
                0x0000000000106098                hil_set_shm
                0x000000000010624c                hil_set_vdev
                0x0000000000106368                hil_set_vring
                0x00000000001064b8                hil_set_vdev_ipi
                0x0000000000106520                hil_set_vring_ipi
                0x00000000001065a4                hil_set_rpmsg_channel
                0x0000000000106614                hil_set_vdev_rst_cb
 .text          0x000000000010664c      0x12c ../../slave_bsp/ps7_cortexa9_1/lib\libopen_amp.a(firmware.c.obj)
                0x000000000010664c                config_get_firmware
 .text          0x0000000000106778     0x1534 ../../slave_bsp/ps7_cortexa9_1/lib\libopen_amp.a(virtqueue.c.obj)
                0x0000000000106bd0                virtqueue_create
                0x0000000000106d48                virtqueue_add_buffer
                0x0000000000106e50                virtqueue_add_single_buffer
                0x0000000000106fc8                virtqueue_get_buffer
                0x00000000001070fc                virtqueue_get_buffer_length
                0x000000000010713c                virtqueue_free
                0x00000000001071c4                virtqueue_get_available_buffer
                0x00000000001072d4                virtqueue_add_consumed_buffer
                0x00000000001073ac                virtqueue_enable_cb
                0x00000000001073d8                virtqueue_disable_cb
                0x0000000000107470                virtqueue_kick
                0x00000000001074b8                virtqueue_dump
                0x00000000001075a8                virtqueue_get_desc_size
                0x0000000000107b2c                virtqueue_notification
 .text          0x0000000000107cac      0xadc ../../slave_bsp/ps7_cortexa9_1/lib\libopen_amp.a(rpmsg.c.obj)
                0x0000000000107d34                rpmsg_init
                0x0000000000107dc4                rpmsg_deinit
                0x0000000000107df4                rpmsg_send_offchannel_raw
                0x0000000000108080                rpmsg_get_buffer_size
                0x0000000000108104                rpmsg_hold_rx_buffer
                0x000000000010816c                rpmsg_release_rx_buffer
                0x000000000010827c                rpmsg_get_tx_payload_buffer
                0x00000000001083cc                rpmsg_send_offchannel_nocopy
                0x000000000010850c                rpmsg_create_ept
                0x00000000001085a4                rpmsg_destroy_ept
                0x00000000001085f4                rpmsg_create_channel
                0x00000000001086f4                rpmsg_delete_channel
 .text          0x0000000000108788     0x12f0 ../../slave_bsp/ps7_cortexa9_1/lib\libopen_amp.a(rpmsg_core.c.obj)
                0x00000000001089a0                rpmsg_start_ipc
                0x0000000000108bd8                _rpmsg_create_channel
                0x0000000000108ca0                _rpmsg_delete_channel
                0x0000000000108d08                _create_endpoint
                0x0000000000108e88                _destroy_endpoint
                0x0000000000108efc                rpmsg_send_ns_message
                0x0000000000109020                rpmsg_enqueue_buffer
                0x00000000001090f4                rpmsg_return_buffer
                0x0000000000109188                rpmsg_get_tx_buffer
                0x0000000000109228                rpmsg_get_rx_buffer
                0x00000000001092ec                rpmsg_free_buffer
                0x00000000001095e8                rpmsg_ns_callback
                0x0000000000109770                rpmsg_get_address
                0x0000000000109840                rpmsg_release_address
                0x0000000000109908                rpmsg_is_address_set
                0x00000000001099b4                rpmsg_set_address
 .text          0x0000000000109a78      0x640 ../../slave_bsp/ps7_cortexa9_1/lib\libopen_amp.a(remoteproc.c.obj)
                0x0000000000109ac4                remoteproc_resource_init
                0x0000000000109c30                remoteproc_resource_deinit
                0x0000000000109cb0                remoteproc_init
                0x0000000000109e84                remoteproc_deinit
                0x0000000000109f10                remoteproc_boot
                0x000000000010a034                remoteproc_shutdown
 .text          0x000000000010a0b8      0x3b0 ../../slave_bsp/ps7_cortexa9_1/lib\libopen_amp.a(remoteproc_loader.c.obj)
                0x000000000010a104                remoteproc_loader_init
                0x000000000010a1a4                remoteproc_loader_delete
                0x000000000010a210                remoteproc_loader_attach_firmware
                0x000000000010a2e0                remoteproc_loader_retrieve_entry_point
                0x000000000010a33c                remoteproc_loader_retrieve_resource_section
                0x000000000010a3a0                remoteproc_loader_load_remote_firmware
                0x000000000010a404                remoteproc_get_load_address
 .text          0x000000000010a468      0x584 ../../slave_bsp/ps7_cortexa9_1/lib\libopen_amp.a(rsc_table_parser.c.obj)
                0x000000000010a5b0                handle_rsc_table
                0x000000000010a70c                handle_carve_out_rsc
                0x000000000010a7dc                handle_trace_rsc
                0x000000000010a808                handle_dev_mem_rsc
                0x000000000010a834                handle_vdev_rsc
                0x000000000010a970                handle_rproc_mem_rsc
                0x000000000010a998                handle_fw_chksum_rsc
                0x000000000010a9c0                handle_mmu_rsc
 .text          0x000000000010a9ec      0x618 ../../slave_bsp/ps7_cortexa9_1/lib\libopen_amp.a(zynq_remoteproc_a9.c.obj)
 .text          0x000000000010b004      0x5ac ../../slave_bsp/ps7_cortexa9_1/lib\libopen_amp.a(sh_mem.c.obj)
                0x000000000010b140                sh_mem_create_pool
                0x000000000010b2a4                sh_mem_get_buffer
                0x000000000010b414                sh_mem_free_buffer
                0x000000000010b500                sh_mem_delete_pool
                0x000000000010b540                get_first_zero_bit
 .text          0x000000000010b5b0      0xe88 ../../slave_bsp/ps7_cortexa9_1/lib\libopen_amp.a(remote_device.c.obj)
                0x000000000010b7e8                rpmsg_rdev_init
                0x000000000010ba04                rpmsg_rdev_deinit
                0x000000000010bba0                rpmsg_rdev_get_chnl_from_id
                0x000000000010bc28                rpmsg_rdev_get_endpoint_from_addr
                0x000000000010bca8                rpmsg_rdev_notify
                0x000000000010bde8                rpmsg_rdev_remote_ready
                0x000000000010bedc                rpmsg_rdev_create_virtqueues
                0x000000000010c268                rpmsg_rdev_get_status
                0x000000000010c2c8                rpmsg_rdev_set_status
                0x000000000010c334                rpmsg_rdev_get_feature
                0x000000000010c35c                rpmsg_rdev_set_feature
                0x000000000010c398                rpmsg_rdev_negotiate_feature
                0x000000000010c3c0                rpmsg_rdev_read_config
                0x000000000010c3ec                rpmsg_rdev_write_config
                0x000000000010c418                rpmsg_rdev_reset
 .text          0x000000000010c438      0xb18 ../../slave_bsp/ps7_cortexa9_1/lib\libopen_amp.a(elf_loader.c.obj)
                0x000000000010c484                elf_loader_init
                0x000000000010c508                elf_loader_attach_firmware
                0x000000000010c5a4                elf_loader_detach_firmware
                0x000000000010c604                elf_loader_retrieve_entry_point
                0x000000000010c634                elf_loader_retrieve_resource_section
                0x000000000010c6b8                elf_loader_load_remote_firmware
                0x000000000010c714                elf_get_load_address
 .text          0x000000000010cf50      0x240 c:/xilinx/sdk/2017.2/gnu/aarch32/nt/gcc-arm-none-eabi/bin/../lib/gcc/arm-none-eabi/6.2.1/v7-a/fpv3/hard\libgcc.a(_divsi3.o)
                0x000000000010cf50                __divsi3
                0x000000000010cf50                __aeabi_idiv
                0x000000000010d170                __aeabi_idivmod
 .text          0x000000000010d190       0x64 c:/xilinx/sdk/2017.2/gnu/aarch32/nt/gcc-arm-none-eabi/bin/../arm-none-eabi/libc/usr/lib/v7-a/fpv3/hard\libc.a(lib_a-assert.o)
                0x000000000010d190                __assert_func
                0x000000000010d1e4                __assert
 .text          0x000000000010d1f4       0x6c c:/xilinx/sdk/2017.2/gnu/aarch32/nt/gcc-arm-none-eabi/bin/../arm-none-eabi/libc/usr/lib/v7-a/fpv3/hard\libc.a(lib_a-fiprintf.o)
                0x000000000010d1f4                _fiprintf_r
                0x000000000010d220                fiprintf
 .text          0x000000000010d260       0x28 c:/xilinx/sdk/2017.2/gnu/aarch32/nt/gcc-arm-none-eabi/bin/../arm-none-eabi/libc/usr/lib/v7-a/fpv3/hard\libc.a(lib_a-malloc.o)
                0x000000000010d260                malloc
                0x000000000010d274                free
 .text          0x000000000010d288      0x76c c:/xilinx/sdk/2017.2/gnu/aarch32/nt/gcc-arm-none-eabi/bin/../arm-none-eabi/libc/usr/lib/v7-a/fpv3/hard\libc.a(lib_a-mallocr.o)
                0x000000000010d288                _malloc_r
 *fill*         0x000000000010d9f4        0xc 
 .text          0x000000000010da00      0x5e0 c:/xilinx/sdk/2017.2/gnu/aarch32/nt/gcc-arm-none-eabi/bin/../arm-none-eabi/libc/usr/lib/v7-a/fpv3/hard\libc.a(lib_a-memcpy.o)
                0x000000000010da00                memcpy
 .text          0x000000000010dfe0      0x118 c:/xilinx/sdk/2017.2/gnu/aarch32/nt/gcc-arm-none-eabi/bin/../arm-none-eabi/libc/usr/lib/v7-a/fpv3/hard\libc.a(lib_a-memset.o)
                0x000000000010dfe0                memset
 .text          0x000000000010e0f8        0x8 c:/xilinx/sdk/2017.2/gnu/aarch32/nt/gcc-arm-none-eabi/bin/../arm-none-eabi/libc/usr/lib/v7-a/fpv3/hard\libc.a(lib_a-mlock.o)
                0x000000000010e0f8                __malloc_lock
                0x000000000010e0fc                __malloc_unlock
 .text          0x000000000010e100       0x74 c:/xilinx/sdk/2017.2/gnu/aarch32/nt/gcc-arm-none-eabi/bin/../arm-none-eabi/libc/usr/lib/v7-a/fpv3/hard\libc.a(lib_a-printf.o)
                0x000000000010e100                _printf_r
                0x000000000010e134                printf
 .text          0x000000000010e174       0x38 c:/xilinx/sdk/2017.2/gnu/aarch32/nt/gcc-arm-none-eabi/bin/../arm-none-eabi/libc/usr/lib/v7-a/fpv3/hard\libc.a(lib_a-sbrkr.o)
                0x000000000010e174                _sbrk_r
 *fill*         0x000000000010e1ac       0x14 
 .text          0x000000000010e1c0      0x2dc c:/xilinx/sdk/2017.2/gnu/aarch32/nt/gcc-arm-none-eabi/bin/../arm-none-eabi/libc/usr/lib/v7-a/fpv3/hard\libc.a(lib_a-strcmp.o)
                0x000000000010e1c8                strcmp
 .text          0x000000000010e49c       0xf8 c:/xilinx/sdk/2017.2/gnu/aarch32/nt/gcc-arm-none-eabi/bin/../arm-none-eabi/libc/usr/lib/v7-a/fpv3/hard\libc.a(lib_a-strcpy.o)
                0x000000000010e49c                strcpy
 .text          0x000000000010e594      0x108 c:/xilinx/sdk/2017.2/gnu/aarch32/nt/gcc-arm-none-eabi/bin/../arm-none-eabi/libc/usr/lib/v7-a/fpv3/hard\libc.a(lib_a-strncmp.o)
                0x000000000010e594                strncmp
 .text          0x000000000010e69c       0xdc c:/xilinx/sdk/2017.2/gnu/aarch32/nt/gcc-arm-none-eabi/bin/../arm-none-eabi/libc/usr/lib/v7-a/fpv3/hard\libc.a(lib_a-strncpy.o)
                0x000000000010e69c                strncpy
 .text          0x000000000010e778     0x1994 c:/xilinx/sdk/2017.2/gnu/aarch32/nt/gcc-arm-none-eabi/bin/../arm-none-eabi/libc/usr/lib/v7-a/fpv3/hard\libc.a(lib_a-vfiprintf.o)
                0x000000000010e820                __sprint_r
                0x000000000010e83c                _vfiprintf_r
                0x0000000000110048                vfiprintf
 *fill*         0x000000000011010c        0x4 
 .text          0x0000000000110110     0x2bfc c:/xilinx/sdk/2017.2/gnu/aarch32/nt/gcc-arm-none-eabi/bin/../arm-none-eabi/libc/usr/lib/v7-a/fpv3/hard\libc.a(lib_a-vfprintf.o)
                0x0000000000110110                _vfprintf_r
                0x0000000000112c48                vfprintf
 .text          0x0000000000112d0c      0x120 c:/xilinx/sdk/2017.2/gnu/aarch32/nt/gcc-arm-none-eabi/bin/../arm-none-eabi/libc/usr/lib/v7-a/fpv3/hard\libc.a(lib_a-wcrtomb.o)
                0x0000000000112d0c                _wcrtomb_r
                0x0000000000112d98                wcrtomb
 .text          0x0000000000112e2c       0x5c c:/xilinx/sdk/2017.2/gnu/aarch32/nt/gcc-arm-none-eabi/bin/../arm-none-eabi/libc/usr/lib/v7-a/fpv3/hard\libc.a(lib_a-wcsrtombs.o)
                0x0000000000112e2c                _wcsrtombs_r
                0x0000000000112e50                wcsrtombs
 .text          0x0000000000112e88      0x388 c:/xilinx/sdk/2017.2/gnu/aarch32/nt/gcc-arm-none-eabi/bin/../arm-none-eabi/libc/usr/lib/v7-a/fpv3/hard\libc.a(lib_a-wctomb_r.o)
                0x0000000000112e88                __ascii_wctomb
                0x0000000000112eb0                _wctomb_r
                0x0000000000112ef8                __utf8_wctomb
                0x0000000000112fe8                __sjis_wctomb
                0x0000000000113074                __eucjp_wctomb
                0x0000000000113138                __jis_wctomb
 .text          0x0000000000113210      0x140 c:/xilinx/sdk/2017.2/gnu/aarch32/nt/gcc-arm-none-eabi/bin/../arm-none-eabi/libc/usr/lib/v7-a/fpv3/hard\libc.a(lib_a-wsetup.o)
                0x0000000000113210                __swsetup_r
 .text          0x0000000000113350       0x14 c:/xilinx/sdk/2017.2/gnu/aarch32/nt/gcc-arm-none-eabi/bin/../arm-none-eabi/libc/usr/lib/v7-a/fpv3/hard\libc.a(lib_a-abort.o)
                0x0000000000113350                abort
 *fill*         0x0000000000113364        0x4 
 .text          0x0000000000113368     0x13ec c:/xilinx/sdk/2017.2/gnu/aarch32/nt/gcc-arm-none-eabi/bin/../arm-none-eabi/libc/usr/lib/v7-a/fpv3/hard\libc.a(lib_a-dtoa.o)
                0x000000000011352c                _dtoa_r
 .text          0x0000000000114754      0x290 c:/xilinx/sdk/2017.2/gnu/aarch32/nt/gcc-arm-none-eabi/bin/../arm-none-eabi/libc/usr/lib/v7-a/fpv3/hard\libc.a(lib_a-fflush.o)
                0x0000000000114754                __sflush_r
                0x0000000000114964                _fflush_r
                0x00000000001149b4                fflush
 .text          0x00000000001149e4      0x318 c:/xilinx/sdk/2017.2/gnu/aarch32/nt/gcc-arm-none-eabi/bin/../arm-none-eabi/libc/usr/lib/v7-a/fpv3/hard\libc.a(lib_a-findfp.o)
                0x00000000001149ec                _cleanup_r
                0x0000000000114b5c                __sfmoreglue
                0x0000000000114ba4                __sfp
                0x0000000000114c94                _cleanup
                0x0000000000114cac                __sinit
                0x0000000000114cbc                __sfp_lock_acquire
                0x0000000000114cc0                __sfp_lock_release
                0x0000000000114cc4                __sinit_lock_acquire
                0x0000000000114cc8                __sinit_lock_release
                0x0000000000114ccc                __fp_lock_all
                0x0000000000114ce4                __fp_unlock_all
 .text          0x0000000000114cfc      0x188 c:/xilinx/sdk/2017.2/gnu/aarch32/nt/gcc-arm-none-eabi/bin/../arm-none-eabi/libc/usr/lib/v7-a/fpv3/hard\libc.a(lib_a-fputwc.o)
                0x0000000000114cfc                __fputwc
                0x0000000000114dfc                _fputwc_r
                0x0000000000114e1c                fputwc
 .text          0x0000000000114e84      0x3dc c:/xilinx/sdk/2017.2/gnu/aarch32/nt/gcc-arm-none-eabi/bin/../arm-none-eabi/libc/usr/lib/v7-a/fpv3/hard\libc.a(lib_a-freer.o)
                0x0000000000114e84                _malloc_trim_r
                0x0000000000114f80                _free_r
 .text          0x0000000000115260      0x4ac c:/xilinx/sdk/2017.2/gnu/aarch32/nt/gcc-arm-none-eabi/bin/../arm-none-eabi/libc/usr/lib/v7-a/fpv3/hard\libc.a(lib_a-fvwrite.o)
                0x0000000000115260                __sfvwrite_r
 .text          0x000000000011570c       0xf8 c:/xilinx/sdk/2017.2/gnu/aarch32/nt/gcc-arm-none-eabi/bin/../arm-none-eabi/libc/usr/lib/v7-a/fpv3/hard\libc.a(lib_a-fwalk.o)
                0x000000000011570c                _fwalk
                0x0000000000115784                _fwalk_reent
 .text          0x0000000000115804      0xd50 c:/xilinx/sdk/2017.2/gnu/aarch32/nt/gcc-arm-none-eabi/bin/../arm-none-eabi/libc/usr/lib/v7-a/fpv3/hard\libc.a(lib_a-locale.o)
                0x00000000001161e4                _setlocale_r
                0x00000000001164ec                __locale_charset
                0x00000000001164f8                __locale_mb_cur_max
                0x0000000000116508                __locale_msgcharset
                0x0000000000116514                __locale_cjk_lang
                0x0000000000116524                _localeconv_r
                0x0000000000116530                setlocale
                0x0000000000116548                localeconv
 .text          0x0000000000116554      0x17c c:/xilinx/sdk/2017.2/gnu/aarch32/nt/gcc-arm-none-eabi/bin/../arm-none-eabi/libc/usr/lib/v7-a/fpv3/hard\libc.a(lib_a-makebuf.o)
                0x0000000000116554                __swhatbuf_r
                0x00000000001165e8                __smakebuf_r
 .text          0x00000000001166d0      0x750 c:/xilinx/sdk/2017.2/gnu/aarch32/nt/gcc-arm-none-eabi/bin/../arm-none-eabi/libc/usr/lib/v7-a/fpv3/hard\libc.a(lib_a-mbtowc_r.o)
                0x00000000001166d0                __ascii_mbtowc
                0x000000000011671c                _mbtowc_r
                0x0000000000116768                __utf8_mbtowc
                0x0000000000116a68                __sjis_mbtowc
                0x0000000000116b3c                __eucjp_mbtowc
                0x0000000000116c74                __jis_mbtowc
 .text          0x0000000000116e20       0xa0 c:/xilinx/sdk/2017.2/gnu/aarch32/nt/gcc-arm-none-eabi/bin/../arm-none-eabi/libc/usr/lib/v7-a/fpv3/hard\libc.a(lib_a-memchr.o)
                0x0000000000116e20                memchr
 .text          0x0000000000116ec0      0x150 c:/xilinx/sdk/2017.2/gnu/aarch32/nt/gcc-arm-none-eabi/bin/../arm-none-eabi/libc/usr/lib/v7-a/fpv3/hard\libc.a(lib_a-memmove.o)
                0x0000000000116ec0                memmove
 .text          0x0000000000117010      0xce8 c:/xilinx/sdk/2017.2/gnu/aarch32/nt/gcc-arm-none-eabi/bin/../arm-none-eabi/libc/usr/lib/v7-a/fpv3/hard\libc.a(lib_a-mprec.o)
                0x0000000000117010                _Balloc
                0x0000000000117098                _Bfree
                0x00000000001170b4                __multadd
                0x0000000000117184                __s2b
                0x000000000011726c                __hi0bits
                0x00000000001172c4                __lo0bits
                0x000000000011735c                __i2b
                0x000000000011737c                __multiply
                0x0000000000117530                __pow5mult
                0x000000000011762c                __lshift
                0x0000000000117718                __mcmp
                0x0000000000117778                __mdiff
                0x0000000000117908                __ulp
                0x0000000000117980                __b2d
                0x0000000000117a5c                __d2b
                0x0000000000117b60                __ratio
                0x0000000000117bd8                _mprec_log10
                0x0000000000117c0c                __copybits
                0x0000000000117c78                __any_on
 .text          0x0000000000117cf8      0x56c c:/xilinx/sdk/2017.2/gnu/aarch32/nt/gcc-arm-none-eabi/bin/../arm-none-eabi/libc/usr/lib/v7-a/fpv3/hard\libc.a(lib_a-reallocr.o)
                0x0000000000117cf8                _realloc_r
 .text          0x0000000000118264      0x11c c:/xilinx/sdk/2017.2/gnu/aarch32/nt/gcc-arm-none-eabi/bin/../arm-none-eabi/libc/usr/lib/v7-a/fpv3/hard\libc.a(lib_a-reent.o)
                0x0000000000118264                cleanup_glue
                0x0000000000118290                _reclaim_reent
 .text          0x0000000000118380       0xa0 c:/xilinx/sdk/2017.2/gnu/aarch32/nt/gcc-arm-none-eabi/bin/../arm-none-eabi/libc/usr/lib/v7-a/fpv3/hard\libc.a(lib_a-s_frexp.o)
                0x0000000000118380                frexp
 .text          0x0000000000118420      0x25c c:/xilinx/sdk/2017.2/gnu/aarch32/nt/gcc-arm-none-eabi/bin/../arm-none-eabi/libc/usr/lib/v7-a/fpv3/hard\libc.a(lib_a-signal.o)
                0x0000000000118464                _init_signal_r
                0x000000000011847c                _signal_r
                0x00000000001184e4                _raise_r
                0x0000000000118584                __sigtramp_r
                0x0000000000118618                raise
                0x000000000011862c                signal
                0x0000000000118644                _init_signal
                0x0000000000118668                __sigtramp
 .text          0x000000000011867c       0x44 c:/xilinx/sdk/2017.2/gnu/aarch32/nt/gcc-arm-none-eabi/bin/../arm-none-eabi/libc/usr/lib/v7-a/fpv3/hard\libc.a(lib_a-signalr.o)
                0x000000000011867c                _kill_r
                0x00000000001186bc                _getpid_r
 .text          0x00000000001186c0       0xc0 c:/xilinx/sdk/2017.2/gnu/aarch32/nt/gcc-arm-none-eabi/bin/../arm-none-eabi/libc/usr/lib/v7-a/fpv3/hard\libc.a(lib_a-stdio.o)
                0x00000000001186c0                __sread
                0x00000000001186f0                __seofread
                0x00000000001186f8                __swrite
                0x000000000011874c                __sseek
                0x0000000000118778                __sclose
 .text          0x0000000000118780       0x70 c:/xilinx/sdk/2017.2/gnu/aarch32/nt/gcc-arm-none-eabi/bin/../arm-none-eabi/libc/usr/lib/v7-a/fpv3/hard\libc.a(lib_a-strcasecmp.o)
                0x0000000000118780                strcasecmp
 .text          0x00000000001187f0       0x70 c:/xilinx/sdk/2017.2/gnu/aarch32/nt/gcc-arm-none-eabi/bin/../arm-none-eabi/libc/usr/lib/v7-a/fpv3/hard\libc.a(lib_a-strcat.o)
                0x00000000001187f0                strcat
 .text          0x0000000000118860      0x1b4 c:/xilinx/sdk/2017.2/gnu/aarch32/nt/gcc-arm-none-eabi/bin/../arm-none-eabi/libc/usr/lib/v7-a/fpv3/hard\libc.a(lib_a-strchr.o)
                0x0000000000118860                strchr
 .text          0x0000000000118a14       0x48 c:/xilinx/sdk/2017.2/gnu/aarch32/nt/gcc-arm-none-eabi/bin/../arm-none-eabi/libc/usr/lib/v7-a/fpv3/hard\libc.a(lib_a-strlcpy.o)
                0x0000000000118a14                strlcpy
 .text          0x0000000000118a5c       0x90 c:/xilinx/sdk/2017.2/gnu/aarch32/nt/gcc-arm-none-eabi/bin/../arm-none-eabi/libc/usr/lib/v7-a/fpv3/hard\libc.a(lib_a-strncasecmp.o)
                0x0000000000118a5c                strncasecmp
 .text          0x0000000000118aec      0x22c c:/xilinx/sdk/2017.2/gnu/aarch32/nt/gcc-arm-none-eabi/bin/../arm-none-eabi/libc/usr/lib/v7-a/fpv3/hard\libc.a(lib_a-strtol.o)
                0x0000000000118aec                _strtol_r
                0x0000000000118cfc                strtol
 .text          0x0000000000118d18      0x140 c:/xilinx/sdk/2017.2/gnu/aarch32/nt/gcc-arm-none-eabi/bin/../arm-none-eabi/libc/usr/lib/v7-a/fpv3/hard\libc.a(lib_a-wbuf.o)
                0x0000000000118d18                __swbuf_r
                0x0000000000118e40                __swbuf
 .text          0x0000000000118e58      0x1d8 c:/xilinx/sdk/2017.2/gnu/aarch32/nt/gcc-arm-none-eabi/bin/../arm-none-eabi/libc/usr/lib/v7-a/fpv3/hard\libc.a(lib_a-wcsnrtombs.o)
                0x0000000000118e58                _wcsnrtombs_r
                0x0000000000118ff4                wcsnrtombs
 .text          0x0000000000119030       0x44 c:/xilinx/sdk/2017.2/gnu/aarch32/nt/gcc-arm-none-eabi/bin/../arm-none-eabi/libc/usr/lib/v7-a/fpv3/hard\libc.a(lib_a-writer.o)
                0x0000000000119030                _write_r
 .text          0x0000000000119074       0x90 c:/xilinx/sdk/2017.2/gnu/aarch32/nt/gcc-arm-none-eabi/bin/../arm-none-eabi/libc/usr/lib/v7-a/fpv3/hard\libc.a(lib_a-callocr.o)
                0x0000000000119074                _calloc_r
 .text          0x0000000000119104       0x38 c:/xilinx/sdk/2017.2/gnu/aarch32/nt/gcc-arm-none-eabi/bin/../arm-none-eabi/libc/usr/lib/v7-a/fpv3/hard\libc.a(lib_a-closer.o)
                0x0000000000119104                _close_r
 .text          0x000000000011913c      0x100 c:/xilinx/sdk/2017.2/gnu/aarch32/nt/gcc-arm-none-eabi/bin/../arm-none-eabi/libc/usr/lib/v7-a/fpv3/hard\libc.a(lib_a-fclose.o)
                0x000000000011913c                _fclose_r
                0x0000000000119228                fclose
 .text          0x000000000011923c       0x40 c:/xilinx/sdk/2017.2/gnu/aarch32/nt/gcc-arm-none-eabi/bin/../arm-none-eabi/libc/usr/lib/v7-a/fpv3/hard\libc.a(lib_a-fstatr.o)
                0x000000000011923c                _fstat_r
 .text          0x000000000011927c       0xe0 c:/xilinx/sdk/2017.2/gnu/aarch32/nt/gcc-arm-none-eabi/bin/../arm-none-eabi/libc/usr/lib/v7-a/fpv3/hard\libc.a(lib_a-getenv_r.o)
                0x000000000011927c                _findenv_r
                0x0000000000119344                _getenv_r
 .text          0x000000000011935c       0x38 c:/xilinx/sdk/2017.2/gnu/aarch32/nt/gcc-arm-none-eabi/bin/../arm-none-eabi/libc/usr/lib/v7-a/fpv3/hard\libc.a(lib_a-isattyr.o)
                0x000000000011935c                _isatty_r
 .text          0x0000000000119394       0x44 c:/xilinx/sdk/2017.2/gnu/aarch32/nt/gcc-arm-none-eabi/bin/../arm-none-eabi/libc/usr/lib/v7-a/fpv3/hard\libc.a(lib_a-lseekr.o)
                0x0000000000119394                _lseek_r
 .text          0x00000000001193d8       0x44 c:/xilinx/sdk/2017.2/gnu/aarch32/nt/gcc-arm-none-eabi/bin/../arm-none-eabi/libc/usr/lib/v7-a/fpv3/hard\libc.a(lib_a-readr.o)
                0x00000000001193d8                _read_r
 .text          0x000000000011941c        0x0 c:/xilinx/sdk/2017.2/gnu/aarch32/nt/gcc-arm-none-eabi/bin/../arm-none-eabi/libc/usr/lib/v7-a/fpv3/hard\libc.a(lib_a-environ.o)
 .text          0x000000000011941c        0x8 c:/xilinx/sdk/2017.2/gnu/aarch32/nt/gcc-arm-none-eabi/bin/../arm-none-eabi/libc/usr/lib/v7-a/fpv3/hard\libc.a(lib_a-envlock.o)
                0x000000000011941c                __env_lock
                0x0000000000119420                __env_unlock
 .text          0x0000000000119424       0xc8 ../../slave_bsp/ps7_cortexa9_1/lib\libxil.a(_sbrk.o)
                0x0000000000119424                _sbrk
 .text          0x00000000001194ec       0x34 ../../slave_bsp/ps7_cortexa9_1/lib\libxil.a(fstat.o)
                0x00000000001194ec                _fstat
 .text          0x0000000000119520       0x38 ../../slave_bsp/ps7_cortexa9_1/lib\libxil.a(getpid.o)
                0x0000000000119520                getpid
                0x000000000011953c                _getpid
 .text          0x0000000000119558       0x48 ../../slave_bsp/ps7_cortexa9_1/lib\libxil.a(isatty.o)
                0x0000000000119558                isatty
                0x000000000011957c                _isatty
 .text          0x00000000001195a0       0x70 ../../slave_bsp/ps7_cortexa9_1/lib\libxil.a(kill.o)
                0x00000000001195a0                kill
                0x00000000001195d8                _kill
 .text          0x0000000000119610       0x70 ../../slave_bsp/ps7_cortexa9_1/lib\libxil.a(lseek.o)
                0x0000000000119610                lseek
                0x0000000000119648                _lseek
 .text          0x0000000000119680      0x148 ../../slave_bsp/ps7_cortexa9_1/lib\libxil.a(xil_mmu.o)
                0x0000000000119680                Xil_SetTlbAttributes
                0x0000000000119710                Xil_EnableMMU
                0x0000000000119764                Xil_DisableMMU
 .text          0x00000000001197c8       0x24 ../../slave_bsp/ps7_cortexa9_1/lib\libxil.a(errno.o)
                0x00000000001197c8                __errno
 .text          0x00000000001197ec      0x8dc ../../slave_bsp/ps7_cortexa9_1/lib\libmetal.a(device.c.obj)
                0x0000000000119994                metal_bus_register
                0x0000000000119a88                metal_bus_unregister
                0x0000000000119b5c                metal_bus_find
                0x0000000000119c04                metal_device_open
                0x0000000000119d1c                metal_device_close
                0x0000000000119dd0                metal_register_generic_device
                0x000000000011a028                metal_generic_dev_dma_unmap
 .text          0x000000000011a0c8      0x2d0 ../../slave_bsp/ps7_cortexa9_1/lib\libmetal.a(io.c.obj)
                0x000000000011a0c8                metal_generic_memset_io
                0x000000000011a200                metal_generic_memcpy_io
                0x000000000011a328                metal_memset_io
                0x000000000011a360                metal_memcpy_io
 .text          0x000000000011a398       0x38 ../../slave_bsp/ps7_cortexa9_1/lib\libmetal.a(shmem.c.obj)
                0x000000000011a398                metal_shmem_open
 .text          0x000000000011a3d0       0x58 ../../slave_bsp/ps7_cortexa9_1/lib\libmetal.a(cache.c.obj)
                0x000000000011a3d0                metal_cache_flush
                0x000000000011a3fc                metal_cache_invalidate
 .text          0x000000000011a428      0x240 ../../slave_bsp/ps7_cortexa9_1/lib\libmetal.a(io.c.obj)
                0x000000000011a618                metal_io_mem_map
 .text          0x000000000011a668       0x24 ../../slave_bsp/ps7_cortexa9_1/lib\libmetal.a(sleep.c.obj)
                0x000000000011a668                metal_sleep_usec
 .text          0x000000000011a68c      0x22c ../../slave_bsp/ps7_cortexa9_1/lib\libmetal.a(shmem.c.obj)
                0x000000000011a740                metal_shmem_register_generic
                0x000000000011a7ec                metal_shmem_open_generic
 .text          0x000000000011a8b8      0xb44 ../../slave_bsp/ps7_cortexa9_1/lib\libopen_amp.a(rpmsg_retarget.c.obj)
                0x000000000011aa48                rpc_cb
                0x000000000011aae4                send_rpc
                0x000000000011ab2c                rpmsg_retarget_init
                0x000000000011ac4c                rpmsg_retarget_deinit
                0x000000000011acf0                rpmsg_retarget_send
                0x000000000011ad94                _open
                0x000000000011af38                _read
                0x000000000011b0f0                _write
                0x000000000011b2bc                _close
 .text          0x000000000011b3fc       0x3c c:/xilinx/sdk/2017.2/gnu/aarch32/nt/gcc-arm-none-eabi/bin/../lib/gcc/arm-none-eabi/6.2.1/v7-a/fpv3/hard\libgcc.a(_aeabi_uldivmod.o)
                0x000000000011b3fc                __aeabi_uldivmod
 .text          0x000000000011b438      0x124 c:/xilinx/sdk/2017.2/gnu/aarch32/nt/gcc-arm-none-eabi/bin/../lib/gcc/arm-none-eabi/6.2.1/v7-a/fpv3/hard\libgcc.a(_udivmoddi4.o)
                0x000000000011b438                __udivmoddi4
 .text          0x000000000011b55c        0x0 c:/xilinx/sdk/2017.2/gnu/aarch32/nt/gcc-arm-none-eabi/bin/../lib/gcc/arm-none-eabi/6.2.1/v7-a/fpv3/hard/crtend.o
 .text          0x000000000011b55c        0x0 c:/xilinx/sdk/2017.2/gnu/aarch32/nt/gcc-arm-none-eabi/bin/../lib/gcc/arm-none-eabi/6.2.1/v7-a/fpv3/hard/crtn.o
 *(.text.*)
 *(.gnu.linkonce.t.*)
 *(.plt)
 *(.gnu_warning)
 *(.gcc_execpt_table)
 *(.glue_7)
 .glue_7        0x000000000011b55c        0x0 linker stubs
 *(.glue_7t)
 .glue_7t       0x000000000011b55c        0x0 linker stubs
 *(.vfp11_veneer)
 .vfp11_veneer  0x000000000011b55c        0x0 linker stubs
 *(.ARM.extab)
 .ARM.extab     0x000000000011b55c        0x0 c:/xilinx/sdk/2017.2/gnu/aarch32/nt/gcc-arm-none-eabi/bin/../lib/gcc/arm-none-eabi/6.2.1/v7-a/fpv3/hard\libgcc.a(_udivmoddi4.o)
 *(.gnu.linkonce.armextab.*)

.v4_bx          0x000000000011b55c        0x0
 .v4_bx         0x000000000011b55c        0x0 linker stubs

.iplt           0x000000000011b55c        0x0
 .iplt          0x000000000011b55c        0x0 c:/xilinx/sdk/2017.2/gnu/aarch32/nt/gcc-arm-none-eabi/bin/../lib/gcc/arm-none-eabi/6.2.1/v7-a/fpv3/hard/crtbegin.o

.init           0x000000000011b55c       0x18
 *(.init)
 .init          0x000000000011b55c        0xc c:/xilinx/sdk/2017.2/gnu/aarch32/nt/gcc-arm-none-eabi/bin/../lib/gcc/arm-none-eabi/6.2.1/v7-a/fpv3/hard/crti.o
                0x000000000011b55c                _init
 .init          0x000000000011b568        0xc c:/xilinx/sdk/2017.2/gnu/aarch32/nt/gcc-arm-none-eabi/bin/../lib/gcc/arm-none-eabi/6.2.1/v7-a/fpv3/hard/crtn.o

.fini           0x000000000011b574       0x18
 *(.fini)
 .fini          0x000000000011b574        0xc c:/xilinx/sdk/2017.2/gnu/aarch32/nt/gcc-arm-none-eabi/bin/../lib/gcc/arm-none-eabi/6.2.1/v7-a/fpv3/hard/crti.o
                0x000000000011b574                _fini
 .fini          0x000000000011b580        0xc c:/xilinx/sdk/2017.2/gnu/aarch32/nt/gcc-arm-none-eabi/bin/../lib/gcc/arm-none-eabi/6.2.1/v7-a/fpv3/hard/crtn.o

.rodata         0x000000000011b590      0xbb0
                0x000000000011b590                __rodata_start = .
 *(.rodata)
 .rodata        0x000000000011b590      0x1e1 ./src/echo_test.o
 *fill*         0x000000000011b771        0x3 
 .rodata        0x000000000011b774        0x8 ./src/helper.o
 .rodata        0x000000000011b77c       0x47 ./src/platform_info.o
                0x000000000011b77c                fw_table
                0x000000000011b7a4                fw_table_size
 *fill*         0x000000000011b7c3        0x1 
 .rodata        0x000000000011b7c4        0xa ../../slave_bsp/ps7_cortexa9_1/lib\libxil.a(xscugic.o)
 *fill*         0x000000000011b7ce        0x2 
 .rodata        0x000000000011b7d0        0xf ../../slave_bsp/ps7_cortexa9_1/lib\libxil.a(xscugic_intr.o)
 *fill*         0x000000000011b7df        0x1 
 .rodata        0x000000000011b7e0       0x11 ../../slave_bsp/ps7_cortexa9_1/lib\libxil.a(xil_printf.o)
 *fill*         0x000000000011b7f1        0x3 
 .rodata        0x000000000011b7f4      0x101 c:/xilinx/sdk/2017.2/gnu/aarch32/nt/gcc-arm-none-eabi/bin/../arm-none-eabi/libc/usr/lib/v7-a/fpv3/hard\libc.a(lib_a-ctype_.o)
                0x000000000011b7f4                _ctype_
 *fill*         0x000000000011b8f5        0x3 
 .rodata        0x000000000011b8f8        0x4 c:/xilinx/sdk/2017.2/gnu/aarch32/nt/gcc-arm-none-eabi/bin/../arm-none-eabi/libc/usr/lib/v7-a/fpv3/hard\libc.a(lib_a-impure.o)
                0x000000000011b8f8                _global_impure_ptr
 .rodata        0x000000000011b8fc      0x12b ../../slave_bsp/ps7_cortexa9_1/lib\libmetal.a(irq.c.obj)
 *fill*         0x000000000011ba27        0x1 
 .rodata        0x000000000011ba28       0xbe ../../slave_bsp/ps7_cortexa9_1/lib\libopen_amp.a(virtqueue.c.obj)
 *fill*         0x000000000011bae6        0x2 
 .rodata        0x000000000011bae8        0xe ../../slave_bsp/ps7_cortexa9_1/lib\libopen_amp.a(rpmsg_core.c.obj)
 *fill*         0x000000000011baf6        0x2 
 .rodata        0x000000000011baf8       0x77 ../../slave_bsp/ps7_cortexa9_1/lib\libopen_amp.a(zynq_remoteproc_a9.c.obj)
 *fill*         0x000000000011bb6f        0x1 
 .rodata        0x000000000011bb70       0x36 ../../slave_bsp/ps7_cortexa9_1/lib\libopen_amp.a(elf_loader.c.obj)
 *fill*         0x000000000011bba6        0x2 
 .rodata        0x000000000011bba8       0x20 c:/xilinx/sdk/2017.2/gnu/aarch32/nt/gcc-arm-none-eabi/bin/../arm-none-eabi/libc/usr/lib/v7-a/fpv3/hard\libc.a(lib_a-vfiprintf.o)
 .rodata        0x000000000011bbc8       0x20 c:/xilinx/sdk/2017.2/gnu/aarch32/nt/gcc-arm-none-eabi/bin/../arm-none-eabi/libc/usr/lib/v7-a/fpv3/hard\libc.a(lib_a-vfprintf.o)
 .rodata        0x000000000011bbe8       0x1c c:/xilinx/sdk/2017.2/gnu/aarch32/nt/gcc-arm-none-eabi/bin/../arm-none-eabi/libc/usr/lib/v7-a/fpv3/hard\libc.a(lib_a-locale.o)
 .rodata        0x000000000011bc04       0x90 c:/xilinx/sdk/2017.2/gnu/aarch32/nt/gcc-arm-none-eabi/bin/../arm-none-eabi/libc/usr/lib/v7-a/fpv3/hard\libc.a(lib_a-mbtowc_r.o)
 *fill*         0x000000000011bc94        0x4 
 .rodata        0x000000000011bc98      0x128 c:/xilinx/sdk/2017.2/gnu/aarch32/nt/gcc-arm-none-eabi/bin/../arm-none-eabi/libc/usr/lib/v7-a/fpv3/hard\libc.a(lib_a-mprec.o)
                0x000000000011bca8                __mprec_tens
                0x000000000011bd70                __mprec_tinytens
                0x000000000011bd98                __mprec_bigtens
 .rodata        0x000000000011bdc0       0xdf ../../slave_bsp/ps7_cortexa9_1/lib\libmetal.a(device.c.obj)
 *fill*         0x000000000011be9f        0x1 
 .rodata        0x000000000011bea0       0xdd ../../slave_bsp/ps7_cortexa9_1/lib\libmetal.a(shmem.c.obj)
 *(.rodata.*)
 *fill*         0x000000000011bf7d        0x3 
 .rodata.str1.4
                0x000000000011bf80        0x2 c:/xilinx/sdk/2017.2/gnu/aarch32/nt/gcc-arm-none-eabi/bin/../arm-none-eabi/libc/usr/lib/v7-a/fpv3/hard\libc.a(lib_a-impure.o)
 *fill*         0x000000000011bf82        0x2 
 .rodata.str1.4
                0x000000000011bf84       0x3f c:/xilinx/sdk/2017.2/gnu/aarch32/nt/gcc-arm-none-eabi/bin/../arm-none-eabi/libc/usr/lib/v7-a/fpv3/hard\libc.a(lib_a-assert.o)
                                         0x43 (size before relaxing)
 *fill*         0x000000000011bfc3        0x1 
 .rodata.str1.4
                0x000000000011bfc4       0x2f c:/xilinx/sdk/2017.2/gnu/aarch32/nt/gcc-arm-none-eabi/bin/../arm-none-eabi/libc/usr/lib/v7-a/fpv3/hard\libc.a(lib_a-vfiprintf.o)
 *fill*         0x000000000011bff3        0x1 
 .rodata.str1.4
                0x000000000011bff4       0x12 c:/xilinx/sdk/2017.2/gnu/aarch32/nt/gcc-arm-none-eabi/bin/../arm-none-eabi/libc/usr/lib/v7-a/fpv3/hard\libc.a(lib_a-vfprintf.o)
                                         0x42 (size before relaxing)
 *fill*         0x000000000011c006        0x2 
 .rodata.str1.4
                0x000000000011c008       0x10 c:/xilinx/sdk/2017.2/gnu/aarch32/nt/gcc-arm-none-eabi/bin/../arm-none-eabi/libc/usr/lib/v7-a/fpv3/hard\libc.a(lib_a-dtoa.o)
                                         0x12 (size before relaxing)
 .rodata.str1.4
                0x000000000011c018      0x128 c:/xilinx/sdk/2017.2/gnu/aarch32/nt/gcc-arm-none-eabi/bin/../arm-none-eabi/libc/usr/lib/v7-a/fpv3/hard\libc.a(lib_a-locale.o)
                                        0x12d (size before relaxing)
 *(.gnu.linkonce.r.*)
                0x000000000011c140                __rodata_end = .

.rodata1        0x000000000011c140        0x0
                0x000000000011c140                __rodata1_start = .
 *(.rodata1)
 *(.rodata1.*)
                0x000000000011c140                __rodata1_end = .

.sdata2         0x000000000011c140        0x0
                0x000000000011c140                __sdata2_start = .
 *(.sdata2)
 *(.sdata2.*)
 *(.gnu.linkonce.s2.*)
                0x000000000011c140                __sdata2_end = .

.sbss2          0x000000000011c140        0x0
                0x000000000011c140                __sbss2_start = .
 *(.sbss2)
 *(.sbss2.*)
 *(.gnu.linkonce.sb2.*)
                0x000000000011c140                __sbss2_end = .

.data           0x000000000011c140     0x1144
                0x000000000011c140                __data_start = .
 *(.data)
 .data          0x000000000011c140        0x0 c:/xilinx/sdk/2017.2/gnu/aarch32/nt/gcc-arm-none-eabi/bin/../lib/gcc/arm-none-eabi/6.2.1/v7-a/fpv3/hard/crti.o
 .data          0x000000000011c140        0x4 c:/xilinx/sdk/2017.2/gnu/aarch32/nt/gcc-arm-none-eabi/bin/../lib/gcc/arm-none-eabi/6.2.1/v7-a/fpv3/hard/crtbegin.o
                0x000000000011c140                __dso_handle
 .data          0x000000000011c144        0x0 ./src/echo_test.o
 .data          0x000000000011c144        0x0 ./src/helper.o
 .data          0x000000000011c144        0x0 ./src/platform_info.o
 .data          0x000000000011c144        0x0 ./src/rsc_table.o
 .data          0x000000000011c144        0x4 ../../slave_bsp/ps7_cortexa9_1/lib\libxil.a(xscugic.o)
 .data          0x000000000011c148        0x0 ../../slave_bsp/ps7_cortexa9_1/lib\libxil.a(xscugic_intr.o)
 .data          0x000000000011c148        0x0 ../../slave_bsp/ps7_cortexa9_1/lib\libxil.a(xscugic_sinit.o)
 .data          0x000000000011c148        0x0 ../../slave_bsp/ps7_cortexa9_1/lib\libxil.a(asm_vectors.o)
 .data          0x000000000011c148        0x0 ../../slave_bsp/ps7_cortexa9_1/lib\libxil.a(boot.o)
 .data          0x000000000011c148        0x0 ../../slave_bsp/ps7_cortexa9_1/lib\libxil.a(translation_table.o)
 .data          0x000000000011c148        0x0 ../../slave_bsp/ps7_cortexa9_1/lib\libxil.a(vectors.o)
 .data          0x000000000011c148        0x0 ../../slave_bsp/ps7_cortexa9_1/lib\libxil.a(xil-crt0.o)
 .data          0x000000000011c148        0x4 ../../slave_bsp/ps7_cortexa9_1/lib\libxil.a(xil_assert.o)
                0x000000000011c148                Xil_AssertWait
 .data          0x000000000011c14c        0x0 ../../slave_bsp/ps7_cortexa9_1/lib\libxil.a(xil_cache.o)
 .data          0x000000000011c14c       0x38 ../../slave_bsp/ps7_cortexa9_1/lib\libxil.a(xil_exception.o)
                0x000000000011c14c                XExc_VectorTable
 .data          0x000000000011c184        0x0 ../../slave_bsp/ps7_cortexa9_1/lib\libxil.a(xil_printf.o)
 .data          0x000000000011c184      0x624 ../../slave_bsp/ps7_cortexa9_1/lib\libxil.a(xscugic_g.o)
                0x000000000011c184                XScuGic_ConfigTable
 .data          0x000000000011c7a8        0x0 ../../slave_bsp/ps7_cortexa9_1/lib\libxil.a(cpu_init.o)
 .data          0x000000000011c7a8        0x0 ../../slave_bsp/ps7_cortexa9_1/lib\libxil.a(outbyte.o)
 .data          0x000000000011c7a8        0x0 ../../slave_bsp/ps7_cortexa9_1/lib\libxil.a(xuartps_hw.o)
 .data          0x000000000011c7a8        0x0 c:/xilinx/sdk/2017.2/gnu/aarch32/nt/gcc-arm-none-eabi/bin/../lib/gcc/arm-none-eabi/6.2.1/v7-a/fpv3/hard\libgcc.a(_udivsi3.o)
 .data          0x000000000011c7a8        0x0 c:/xilinx/sdk/2017.2/gnu/aarch32/nt/gcc-arm-none-eabi/bin/../lib/gcc/arm-none-eabi/6.2.1/v7-a/fpv3/hard\libgcc.a(_dvmd_tls.o)
 .data          0x000000000011c7a8        0x4 c:/xilinx/sdk/2017.2/gnu/aarch32/nt/gcc-arm-none-eabi/bin/../arm-none-eabi/libc/usr/lib/v7-a/fpv3/hard\libc.a(lib_a-ctype_.o)
                0x000000000011c7a8                __ctype_ptr__
 .data          0x000000000011c7ac        0x0 c:/xilinx/sdk/2017.2/gnu/aarch32/nt/gcc-arm-none-eabi/bin/../arm-none-eabi/libc/usr/lib/v7-a/fpv3/hard\libc.a(lib_a-exit.o)
 .data          0x000000000011c7ac        0x0 c:/xilinx/sdk/2017.2/gnu/aarch32/nt/gcc-arm-none-eabi/bin/../arm-none-eabi/libc/usr/lib/v7-a/fpv3/hard\libc.a(lib_a-fini.o)
 *fill*         0x000000000011c7ac        0x4 
 .data          0x000000000011c7b0      0x430 c:/xilinx/sdk/2017.2/gnu/aarch32/nt/gcc-arm-none-eabi/bin/../arm-none-eabi/libc/usr/lib/v7-a/fpv3/hard\libc.a(lib_a-impure.o)
                0x000000000011c7b0                _impure_ptr
 .data          0x000000000011cbe0        0x0 c:/xilinx/sdk/2017.2/gnu/aarch32/nt/gcc-arm-none-eabi/bin/../arm-none-eabi/libc/usr/lib/v7-a/fpv3/hard\libc.a(lib_a-init.o)
 .data          0x000000000011cbe0        0x0 c:/xilinx/sdk/2017.2/gnu/aarch32/nt/gcc-arm-none-eabi/bin/../arm-none-eabi/libc/usr/lib/v7-a/fpv3/hard\libc.a(lib_a-strlen.o)
 .data          0x000000000011cbe0        0x0 c:/xilinx/sdk/2017.2/gnu/aarch32/nt/gcc-arm-none-eabi/bin/../arm-none-eabi/libc/usr/lib/v7-a/fpv3/hard\libc.a(lib_a-__call_atexit.o)
 .data          0x000000000011cbe0        0x0 ../../slave_bsp/ps7_cortexa9_1/lib\libxil.a(_exit.o)
 .data          0x000000000011cbe0        0x0 ../../slave_bsp/ps7_cortexa9_1/lib\libmetal.a(init.c.obj)
 .data          0x000000000011cbe0        0x0 ../../slave_bsp/ps7_cortexa9_1/lib\libmetal.a(log.c.obj)
 .data          0x000000000011cbe0        0x0 ../../slave_bsp/ps7_cortexa9_1/lib\libmetal.a(init.c.obj)
 .data          0x000000000011cbe0        0x0 ../../slave_bsp/ps7_cortexa9_1/lib\libmetal.a(irq.c.obj)
 .data          0x000000000011cbe0        0x4 ../../slave_bsp/ps7_cortexa9_1/lib\libmetal.a(sys.c.obj)
 .data          0x000000000011cbe4       0x50 ../../slave_bsp/ps7_cortexa9_1/lib\libopen_amp.a(hil.c.obj)
                0x000000000011cbec                hil_shm_generic_io
                0x000000000011cc10                hil_devmem_generic_io
 .data          0x000000000011cc34        0x0 ../../slave_bsp/ps7_cortexa9_1/lib\libopen_amp.a(firmware.c.obj)
 .data          0x000000000011cc34        0x0 ../../slave_bsp/ps7_cortexa9_1/lib\libopen_amp.a(virtqueue.c.obj)
 .data          0x000000000011cc34        0x0 ../../slave_bsp/ps7_cortexa9_1/lib\libopen_amp.a(rpmsg.c.obj)
 .data          0x000000000011cc34        0x0 ../../slave_bsp/ps7_cortexa9_1/lib\libopen_amp.a(rpmsg_core.c.obj)
 .data          0x000000000011cc34        0x0 ../../slave_bsp/ps7_cortexa9_1/lib\libopen_amp.a(remoteproc.c.obj)
 .data          0x000000000011cc34        0x0 ../../slave_bsp/ps7_cortexa9_1/lib\libopen_amp.a(remoteproc_loader.c.obj)
 .data          0x000000000011cc34       0x1c ../../slave_bsp/ps7_cortexa9_1/lib\libopen_amp.a(rsc_table_parser.c.obj)
                0x000000000011cc34                rsc_handler_table
 .data          0x000000000011cc50       0x44 ../../slave_bsp/ps7_cortexa9_1/lib\libopen_amp.a(zynq_remoteproc_a9.c.obj)
                0x000000000011cc50                zynq_a9_proc_ops
 .data          0x000000000011cc94        0x0 ../../slave_bsp/ps7_cortexa9_1/lib\libopen_amp.a(sh_mem.c.obj)
 .data          0x000000000011cc94       0x24 ../../slave_bsp/ps7_cortexa9_1/lib\libopen_amp.a(remote_device.c.obj)
                0x000000000011cc94                rpmsg_rdev_config_ops
 .data          0x000000000011ccb8        0x0 ../../slave_bsp/ps7_cortexa9_1/lib\libopen_amp.a(elf_loader.c.obj)
 .data          0x000000000011ccb8        0x0 c:/xilinx/sdk/2017.2/gnu/aarch32/nt/gcc-arm-none-eabi/bin/../lib/gcc/arm-none-eabi/6.2.1/v7-a/fpv3/hard\libgcc.a(_divsi3.o)
 .data          0x000000000011ccb8        0x0 c:/xilinx/sdk/2017.2/gnu/aarch32/nt/gcc-arm-none-eabi/bin/../arm-none-eabi/libc/usr/lib/v7-a/fpv3/hard\libc.a(lib_a-assert.o)
 .data          0x000000000011ccb8        0x0 c:/xilinx/sdk/2017.2/gnu/aarch32/nt/gcc-arm-none-eabi/bin/../arm-none-eabi/libc/usr/lib/v7-a/fpv3/hard\libc.a(lib_a-fiprintf.o)
 .data          0x000000000011ccb8        0x0 c:/xilinx/sdk/2017.2/gnu/aarch32/nt/gcc-arm-none-eabi/bin/../arm-none-eabi/libc/usr/lib/v7-a/fpv3/hard\libc.a(lib_a-malloc.o)
 .data          0x000000000011ccb8      0x410 c:/xilinx/sdk/2017.2/gnu/aarch32/nt/gcc-arm-none-eabi/bin/../arm-none-eabi/libc/usr/lib/v7-a/fpv3/hard\libc.a(lib_a-mallocr.o)
                0x000000000011ccb8                __malloc_av_
                0x000000000011d0c0                __malloc_sbrk_base
                0x000000000011d0c4                __malloc_trim_threshold
 .data          0x000000000011d0c8        0x0 c:/xilinx/sdk/2017.2/gnu/aarch32/nt/gcc-arm-none-eabi/bin/../arm-none-eabi/libc/usr/lib/v7-a/fpv3/hard\libc.a(lib_a-memcpy.o)
 .data          0x000000000011d0c8        0x0 c:/xilinx/sdk/2017.2/gnu/aarch32/nt/gcc-arm-none-eabi/bin/../arm-none-eabi/libc/usr/lib/v7-a/fpv3/hard\libc.a(lib_a-memset.o)
 .data          0x000000000011d0c8        0x0 c:/xilinx/sdk/2017.2/gnu/aarch32/nt/gcc-arm-none-eabi/bin/../arm-none-eabi/libc/usr/lib/v7-a/fpv3/hard\libc.a(lib_a-mlock.o)
 .data          0x000000000011d0c8        0x0 c:/xilinx/sdk/2017.2/gnu/aarch32/nt/gcc-arm-none-eabi/bin/../arm-none-eabi/libc/usr/lib/v7-a/fpv3/hard\libc.a(lib_a-printf.o)
 .data          0x000000000011d0c8        0x0 c:/xilinx/sdk/2017.2/gnu/aarch32/nt/gcc-arm-none-eabi/bin/../arm-none-eabi/libc/usr/lib/v7-a/fpv3/hard\libc.a(lib_a-sbrkr.o)
 .data          0x000000000011d0c8        0x0 c:/xilinx/sdk/2017.2/gnu/aarch32/nt/gcc-arm-none-eabi/bin/../arm-none-eabi/libc/usr/lib/v7-a/fpv3/hard\libc.a(lib_a-strcmp.o)
 .data          0x000000000011d0c8        0x0 c:/xilinx/sdk/2017.2/gnu/aarch32/nt/gcc-arm-none-eabi/bin/../arm-none-eabi/libc/usr/lib/v7-a/fpv3/hard\libc.a(lib_a-strcpy.o)
 .data          0x000000000011d0c8        0x0 c:/xilinx/sdk/2017.2/gnu/aarch32/nt/gcc-arm-none-eabi/bin/../arm-none-eabi/libc/usr/lib/v7-a/fpv3/hard\libc.a(lib_a-strncmp.o)
 .data          0x000000000011d0c8        0x0 c:/xilinx/sdk/2017.2/gnu/aarch32/nt/gcc-arm-none-eabi/bin/../arm-none-eabi/libc/usr/lib/v7-a/fpv3/hard\libc.a(lib_a-strncpy.o)
 .data          0x000000000011d0c8        0x0 c:/xilinx/sdk/2017.2/gnu/aarch32/nt/gcc-arm-none-eabi/bin/../arm-none-eabi/libc/usr/lib/v7-a/fpv3/hard\libc.a(lib_a-vfiprintf.o)
 .data          0x000000000011d0c8        0x0 c:/xilinx/sdk/2017.2/gnu/aarch32/nt/gcc-arm-none-eabi/bin/../arm-none-eabi/libc/usr/lib/v7-a/fpv3/hard\libc.a(lib_a-vfprintf.o)
 .data          0x000000000011d0c8        0x0 c:/xilinx/sdk/2017.2/gnu/aarch32/nt/gcc-arm-none-eabi/bin/../arm-none-eabi/libc/usr/lib/v7-a/fpv3/hard\libc.a(lib_a-wcrtomb.o)
 .data          0x000000000011d0c8        0x0 c:/xilinx/sdk/2017.2/gnu/aarch32/nt/gcc-arm-none-eabi/bin/../arm-none-eabi/libc/usr/lib/v7-a/fpv3/hard\libc.a(lib_a-wcsrtombs.o)
 .data          0x000000000011d0c8        0x4 c:/xilinx/sdk/2017.2/gnu/aarch32/nt/gcc-arm-none-eabi/bin/../arm-none-eabi/libc/usr/lib/v7-a/fpv3/hard\libc.a(lib_a-wctomb_r.o)
                0x000000000011d0c8                __wctomb
 .data          0x000000000011d0cc        0x0 c:/xilinx/sdk/2017.2/gnu/aarch32/nt/gcc-arm-none-eabi/bin/../arm-none-eabi/libc/usr/lib/v7-a/fpv3/hard\libc.a(lib_a-wsetup.o)
 .data          0x000000000011d0cc        0x0 c:/xilinx/sdk/2017.2/gnu/aarch32/nt/gcc-arm-none-eabi/bin/../arm-none-eabi/libc/usr/lib/v7-a/fpv3/hard\libc.a(lib_a-abort.o)
 .data          0x000000000011d0cc        0x0 c:/xilinx/sdk/2017.2/gnu/aarch32/nt/gcc-arm-none-eabi/bin/../arm-none-eabi/libc/usr/lib/v7-a/fpv3/hard\libc.a(lib_a-dtoa.o)
 .data          0x000000000011d0cc        0x0 c:/xilinx/sdk/2017.2/gnu/aarch32/nt/gcc-arm-none-eabi/bin/../arm-none-eabi/libc/usr/lib/v7-a/fpv3/hard\libc.a(lib_a-fflush.o)
 .data          0x000000000011d0cc        0x0 c:/xilinx/sdk/2017.2/gnu/aarch32/nt/gcc-arm-none-eabi/bin/../arm-none-eabi/libc/usr/lib/v7-a/fpv3/hard\libc.a(lib_a-findfp.o)
 .data          0x000000000011d0cc        0x0 c:/xilinx/sdk/2017.2/gnu/aarch32/nt/gcc-arm-none-eabi/bin/../arm-none-eabi/libc/usr/lib/v7-a/fpv3/hard\libc.a(lib_a-fputwc.o)
 .data          0x000000000011d0cc        0x0 c:/xilinx/sdk/2017.2/gnu/aarch32/nt/gcc-arm-none-eabi/bin/../arm-none-eabi/libc/usr/lib/v7-a/fpv3/hard\libc.a(lib_a-freer.o)
 .data          0x000000000011d0cc        0x0 c:/xilinx/sdk/2017.2/gnu/aarch32/nt/gcc-arm-none-eabi/bin/../arm-none-eabi/libc/usr/lib/v7-a/fpv3/hard\libc.a(lib_a-fvwrite.o)
 .data          0x000000000011d0cc        0x0 c:/xilinx/sdk/2017.2/gnu/aarch32/nt/gcc-arm-none-eabi/bin/../arm-none-eabi/libc/usr/lib/v7-a/fpv3/hard\libc.a(lib_a-fwalk.o)
 .data          0x000000000011d0cc      0x17c c:/xilinx/sdk/2017.2/gnu/aarch32/nt/gcc-arm-none-eabi/bin/../arm-none-eabi/libc/usr/lib/v7-a/fpv3/hard\libc.a(lib_a-locale.o)
                0x000000000011d0cc                __default_locale
                0x000000000011d1ec                __mb_cur_max
 .data          0x000000000011d248        0x0 c:/xilinx/sdk/2017.2/gnu/aarch32/nt/gcc-arm-none-eabi/bin/../arm-none-eabi/libc/usr/lib/v7-a/fpv3/hard\libc.a(lib_a-makebuf.o)
 .data          0x000000000011d248        0x4 c:/xilinx/sdk/2017.2/gnu/aarch32/nt/gcc-arm-none-eabi/bin/../arm-none-eabi/libc/usr/lib/v7-a/fpv3/hard\libc.a(lib_a-mbtowc_r.o)
                0x000000000011d248                __mbtowc
 .data          0x000000000011d24c        0x0 c:/xilinx/sdk/2017.2/gnu/aarch32/nt/gcc-arm-none-eabi/bin/../arm-none-eabi/libc/usr/lib/v7-a/fpv3/hard\libc.a(lib_a-memchr.o)
 .data          0x000000000011d24c        0x0 c:/xilinx/sdk/2017.2/gnu/aarch32/nt/gcc-arm-none-eabi/bin/../arm-none-eabi/libc/usr/lib/v7-a/fpv3/hard\libc.a(lib_a-memmove.o)
 .data          0x000000000011d24c        0x0 c:/xilinx/sdk/2017.2/gnu/aarch32/nt/gcc-arm-none-eabi/bin/../arm-none-eabi/libc/usr/lib/v7-a/fpv3/hard\libc.a(lib_a-mprec.o)
 .data          0x000000000011d24c        0x0 c:/xilinx/sdk/2017.2/gnu/aarch32/nt/gcc-arm-none-eabi/bin/../arm-none-eabi/libc/usr/lib/v7-a/fpv3/hard\libc.a(lib_a-reallocr.o)
 .data          0x000000000011d24c        0x0 c:/xilinx/sdk/2017.2/gnu/aarch32/nt/gcc-arm-none-eabi/bin/../arm-none-eabi/libc/usr/lib/v7-a/fpv3/hard\libc.a(lib_a-reent.o)
 .data          0x000000000011d24c        0x0 c:/xilinx/sdk/2017.2/gnu/aarch32/nt/gcc-arm-none-eabi/bin/../arm-none-eabi/libc/usr/lib/v7-a/fpv3/hard\libc.a(lib_a-s_frexp.o)
 .data          0x000000000011d24c        0x0 c:/xilinx/sdk/2017.2/gnu/aarch32/nt/gcc-arm-none-eabi/bin/../arm-none-eabi/libc/usr/lib/v7-a/fpv3/hard\libc.a(lib_a-signal.o)
 .data          0x000000000011d24c        0x0 c:/xilinx/sdk/2017.2/gnu/aarch32/nt/gcc-arm-none-eabi/bin/../arm-none-eabi/libc/usr/lib/v7-a/fpv3/hard\libc.a(lib_a-signalr.o)
 .data          0x000000000011d24c        0x0 c:/xilinx/sdk/2017.2/gnu/aarch32/nt/gcc-arm-none-eabi/bin/../arm-none-eabi/libc/usr/lib/v7-a/fpv3/hard\libc.a(lib_a-stdio.o)
 .data          0x000000000011d24c        0x0 c:/xilinx/sdk/2017.2/gnu/aarch32/nt/gcc-arm-none-eabi/bin/../arm-none-eabi/libc/usr/lib/v7-a/fpv3/hard\libc.a(lib_a-strcasecmp.o)
 .data          0x000000000011d24c        0x0 c:/xilinx/sdk/2017.2/gnu/aarch32/nt/gcc-arm-none-eabi/bin/../arm-none-eabi/libc/usr/lib/v7-a/fpv3/hard\libc.a(lib_a-strcat.o)
 .data          0x000000000011d24c        0x0 c:/xilinx/sdk/2017.2/gnu/aarch32/nt/gcc-arm-none-eabi/bin/../arm-none-eabi/libc/usr/lib/v7-a/fpv3/hard\libc.a(lib_a-strchr.o)
 .data          0x000000000011d24c        0x0 c:/xilinx/sdk/2017.2/gnu/aarch32/nt/gcc-arm-none-eabi/bin/../arm-none-eabi/libc/usr/lib/v7-a/fpv3/hard\libc.a(lib_a-strlcpy.o)
 .data          0x000000000011d24c        0x0 c:/xilinx/sdk/2017.2/gnu/aarch32/nt/gcc-arm-none-eabi/bin/../arm-none-eabi/libc/usr/lib/v7-a/fpv3/hard\libc.a(lib_a-strncasecmp.o)
 .data          0x000000000011d24c        0x0 c:/xilinx/sdk/2017.2/gnu/aarch32/nt/gcc-arm-none-eabi/bin/../arm-none-eabi/libc/usr/lib/v7-a/fpv3/hard\libc.a(lib_a-strtol.o)
 .data          0x000000000011d24c        0x0 c:/xilinx/sdk/2017.2/gnu/aarch32/nt/gcc-arm-none-eabi/bin/../arm-none-eabi/libc/usr/lib/v7-a/fpv3/hard\libc.a(lib_a-wbuf.o)
 .data          0x000000000011d24c        0x0 c:/xilinx/sdk/2017.2/gnu/aarch32/nt/gcc-arm-none-eabi/bin/../arm-none-eabi/libc/usr/lib/v7-a/fpv3/hard\libc.a(lib_a-wcsnrtombs.o)
 .data          0x000000000011d24c        0x0 c:/xilinx/sdk/2017.2/gnu/aarch32/nt/gcc-arm-none-eabi/bin/../arm-none-eabi/libc/usr/lib/v7-a/fpv3/hard\libc.a(lib_a-writer.o)
 .data          0x000000000011d24c        0x0 c:/xilinx/sdk/2017.2/gnu/aarch32/nt/gcc-arm-none-eabi/bin/../arm-none-eabi/libc/usr/lib/v7-a/fpv3/hard\libc.a(lib_a-callocr.o)
 .data          0x000000000011d24c        0x0 c:/xilinx/sdk/2017.2/gnu/aarch32/nt/gcc-arm-none-eabi/bin/../arm-none-eabi/libc/usr/lib/v7-a/fpv3/hard\libc.a(lib_a-closer.o)
 .data          0x000000000011d24c        0x0 c:/xilinx/sdk/2017.2/gnu/aarch32/nt/gcc-arm-none-eabi/bin/../arm-none-eabi/libc/usr/lib/v7-a/fpv3/hard\libc.a(lib_a-fclose.o)
 .data          0x000000000011d24c        0x0 c:/xilinx/sdk/2017.2/gnu/aarch32/nt/gcc-arm-none-eabi/bin/../arm-none-eabi/libc/usr/lib/v7-a/fpv3/hard\libc.a(lib_a-fstatr.o)
 .data          0x000000000011d24c        0x0 c:/xilinx/sdk/2017.2/gnu/aarch32/nt/gcc-arm-none-eabi/bin/../arm-none-eabi/libc/usr/lib/v7-a/fpv3/hard\libc.a(lib_a-getenv_r.o)
 .data          0x000000000011d24c        0x0 c:/xilinx/sdk/2017.2/gnu/aarch32/nt/gcc-arm-none-eabi/bin/../arm-none-eabi/libc/usr/lib/v7-a/fpv3/hard\libc.a(lib_a-isattyr.o)
 .data          0x000000000011d24c        0x0 c:/xilinx/sdk/2017.2/gnu/aarch32/nt/gcc-arm-none-eabi/bin/../arm-none-eabi/libc/usr/lib/v7-a/fpv3/hard\libc.a(lib_a-lseekr.o)
 .data          0x000000000011d24c        0x0 c:/xilinx/sdk/2017.2/gnu/aarch32/nt/gcc-arm-none-eabi/bin/../arm-none-eabi/libc/usr/lib/v7-a/fpv3/hard\libc.a(lib_a-readr.o)
 .data          0x000000000011d24c        0x4 c:/xilinx/sdk/2017.2/gnu/aarch32/nt/gcc-arm-none-eabi/bin/../arm-none-eabi/libc/usr/lib/v7-a/fpv3/hard\libc.a(lib_a-environ.o)
                0x000000000011d24c                environ
 .data          0x000000000011d250        0x0 c:/xilinx/sdk/2017.2/gnu/aarch32/nt/gcc-arm-none-eabi/bin/../arm-none-eabi/libc/usr/lib/v7-a/fpv3/hard\libc.a(lib_a-envlock.o)
 .data          0x000000000011d250        0x4 ../../slave_bsp/ps7_cortexa9_1/lib\libxil.a(_sbrk.o)
 .data          0x000000000011d254        0x0 ../../slave_bsp/ps7_cortexa9_1/lib\libxil.a(fstat.o)
 .data          0x000000000011d254        0x0 ../../slave_bsp/ps7_cortexa9_1/lib\libxil.a(getpid.o)
 .data          0x000000000011d254        0x0 ../../slave_bsp/ps7_cortexa9_1/lib\libxil.a(isatty.o)
 .data          0x000000000011d254        0x0 ../../slave_bsp/ps7_cortexa9_1/lib\libxil.a(kill.o)
 .data          0x000000000011d254        0x0 ../../slave_bsp/ps7_cortexa9_1/lib\libxil.a(lseek.o)
 .data          0x000000000011d254        0x0 ../../slave_bsp/ps7_cortexa9_1/lib\libxil.a(xil_mmu.o)
 .data          0x000000000011d254        0x0 ../../slave_bsp/ps7_cortexa9_1/lib\libxil.a(errno.o)
 .data          0x000000000011d254       0x2c ../../slave_bsp/ps7_cortexa9_1/lib\libmetal.a(device.c.obj)
                0x000000000011d254                metal_generic_bus
 .data          0x000000000011d280        0x0 ../../slave_bsp/ps7_cortexa9_1/lib\libmetal.a(io.c.obj)
 .data          0x000000000011d280        0x0 ../../slave_bsp/ps7_cortexa9_1/lib\libmetal.a(shmem.c.obj)
 .data          0x000000000011d280        0x0 ../../slave_bsp/ps7_cortexa9_1/lib\libmetal.a(cache.c.obj)
 .data          0x000000000011d280        0x0 ../../slave_bsp/ps7_cortexa9_1/lib\libmetal.a(io.c.obj)
 .data          0x000000000011d280        0x0 ../../slave_bsp/ps7_cortexa9_1/lib\libmetal.a(sleep.c.obj)
 .data          0x000000000011d280        0x0 ../../slave_bsp/ps7_cortexa9_1/lib\libmetal.a(shmem.c.obj)
 .data          0x000000000011d280        0x0 ../../slave_bsp/ps7_cortexa9_1/lib\libopen_amp.a(rpmsg_retarget.c.obj)
 .data          0x000000000011d280        0x0 c:/xilinx/sdk/2017.2/gnu/aarch32/nt/gcc-arm-none-eabi/bin/../lib/gcc/arm-none-eabi/6.2.1/v7-a/fpv3/hard\libgcc.a(_aeabi_uldivmod.o)
 .data          0x000000000011d280        0x0 c:/xilinx/sdk/2017.2/gnu/aarch32/nt/gcc-arm-none-eabi/bin/../lib/gcc/arm-none-eabi/6.2.1/v7-a/fpv3/hard\libgcc.a(_udivmoddi4.o)
 .data          0x000000000011d280        0x0 c:/xilinx/sdk/2017.2/gnu/aarch32/nt/gcc-arm-none-eabi/bin/../lib/gcc/arm-none-eabi/6.2.1/v7-a/fpv3/hard/crtend.o
 .data          0x000000000011d280        0x0 c:/xilinx/sdk/2017.2/gnu/aarch32/nt/gcc-arm-none-eabi/bin/../lib/gcc/arm-none-eabi/6.2.1/v7-a/fpv3/hard/crtn.o
 *(.data.*)
 *(.gnu.linkonce.d.*)
 *(.jcr)
 .jcr           0x000000000011d280        0x0 c:/xilinx/sdk/2017.2/gnu/aarch32/nt/gcc-arm-none-eabi/bin/../lib/gcc/arm-none-eabi/6.2.1/v7-a/fpv3/hard/crtbegin.o
 .jcr           0x000000000011d280        0x4 c:/xilinx/sdk/2017.2/gnu/aarch32/nt/gcc-arm-none-eabi/bin/../lib/gcc/arm-none-eabi/6.2.1/v7-a/fpv3/hard/crtend.o
 *(.got)
 *(.got.plt)
                0x000000000011d284                __data_end = .

.tm_clone_table
                0x000000000011d284        0x0
 .tm_clone_table
                0x000000000011d284        0x0 c:/xilinx/sdk/2017.2/gnu/aarch32/nt/gcc-arm-none-eabi/bin/../lib/gcc/arm-none-eabi/6.2.1/v7-a/fpv3/hard/crtbegin.o
 .tm_clone_table
                0x000000000011d284        0x0 c:/xilinx/sdk/2017.2/gnu/aarch32/nt/gcc-arm-none-eabi/bin/../lib/gcc/arm-none-eabi/6.2.1/v7-a/fpv3/hard/crtend.o

.igot.plt       0x000000000011d284        0x0
 .igot.plt      0x000000000011d284        0x0 c:/xilinx/sdk/2017.2/gnu/aarch32/nt/gcc-arm-none-eabi/bin/../lib/gcc/arm-none-eabi/6.2.1/v7-a/fpv3/hard/crtbegin.o

.resource_table
                0x000000000011d284       0x88
 .resource_table
                0x000000000011d284       0x88 ./src/rsc_table.o
                0x000000000011d284                resources

.got2           0x000000000011d30c        0x0
 .got2          0x000000000011d30c        0x0 ../../slave_bsp/ps7_cortexa9_1/lib\libxil.a(xil-crt0.o)

.data1          0x000000000011d30c        0x0
                0x000000000011d30c                __data1_start = .
 *(.data1)
 *(.data1.*)
                0x000000000011d30c                __data1_end = .

.got
 *(.got)

.ctors          0x000000000011d30c        0x0
                0x000000000011d30c                __CTOR_LIST__ = .
                0x000000000011d30c                ___CTORS_LIST___ = .
 *crtbegin.o(.ctors)
 *(EXCLUDE_FILE(*crtend.o) .ctors)
 *(SORT(.ctors.*))
 *(.ctors)
                0x000000000011d30c                __CTOR_END__ = .
                0x000000000011d30c                ___CTORS_END___ = .

.dtors          0x000000000011d30c        0x0
                0x000000000011d30c                __DTOR_LIST__ = .
                0x000000000011d30c                ___DTORS_LIST___ = .
 *crtbegin.o(.dtors)
 *(EXCLUDE_FILE(*crtend.o) .dtors)
 *(SORT(.dtors.*))
 *(.dtors)
                0x000000000011d30c                __DTOR_END__ = .
                0x000000000011d30c                ___DTORS_END___ = .

.fixup          0x000000000011d30c        0x0
                0x000000000011d30c                __fixup_start = .
 *(.fixup)
                0x000000000011d30c                __fixup_end = .

.eh_frame       0x000000000011d30c        0x4
 *(.eh_frame)
 .eh_frame      0x000000000011d30c        0x0 c:/xilinx/sdk/2017.2/gnu/aarch32/nt/gcc-arm-none-eabi/bin/../lib/gcc/arm-none-eabi/6.2.1/v7-a/fpv3/hard/crtbegin.o
 .eh_frame      0x000000000011d30c        0x4 c:/xilinx/sdk/2017.2/gnu/aarch32/nt/gcc-arm-none-eabi/bin/../lib/gcc/arm-none-eabi/6.2.1/v7-a/fpv3/hard/crtend.o

.eh_framehdr    0x000000000011d310        0x0
                0x000000000011d310                __eh_framehdr_start = .
 *(.eh_framehdr)
                0x000000000011d310                __eh_framehdr_end = .

.gcc_except_table
 *(.gcc_except_table)

.mmu_tbl        0x0000000000120000     0x4000
                0x0000000000120000                __mmu_tbl_start = .
 *(.mmu_tbl)
 .mmu_tbl       0x0000000000120000     0x4000 ../../slave_bsp/ps7_cortexa9_1/lib\libxil.a(translation_table.o)
                0x0000000000120000                MMUTable
                0x0000000000124000                __mmu_tbl_end = .

.ARM.exidx      0x0000000000124000        0x8
                0x0000000000124000                __exidx_start = .
 *(.ARM.exidx*)
 .ARM.exidx     0x0000000000124000        0x8 c:/xilinx/sdk/2017.2/gnu/aarch32/nt/gcc-arm-none-eabi/bin/../lib/gcc/arm-none-eabi/6.2.1/v7-a/fpv3/hard\libgcc.a(_udivmoddi4.o)
 *(.gnu.linkonce.armexidix.*.*)
                0x0000000000124008                __exidx_end = .

.rel.dyn        0x0000000000124008        0x0
 .rel.iplt      0x0000000000124008        0x0 c:/xilinx/sdk/2017.2/gnu/aarch32/nt/gcc-arm-none-eabi/bin/../lib/gcc/arm-none-eabi/6.2.1/v7-a/fpv3/hard/crtbegin.o

.preinit_array  0x0000000000124008        0x0
                0x0000000000124008                __preinit_array_start = .
 *(SORT(.preinit_array.*))
 *(.preinit_array)
                0x0000000000124008                __preinit_array_end = .

.init_array     0x0000000000124008        0x4
                0x0000000000124008                __init_array_start = .
 *(SORT(.init_array.*))
 *(.init_array)
 .init_array    0x0000000000124008        0x4 c:/xilinx/sdk/2017.2/gnu/aarch32/nt/gcc-arm-none-eabi/bin/../lib/gcc/arm-none-eabi/6.2.1/v7-a/fpv3/hard/crtbegin.o
                0x000000000012400c                __init_array_end = .

.fini_array     0x000000000012400c        0x4
                0x000000000012400c                __fini_array_start = .
 *(SORT(.fini_array.*))
 *(.fini_array)
 .fini_array    0x000000000012400c        0x4 c:/xilinx/sdk/2017.2/gnu/aarch32/nt/gcc-arm-none-eabi/bin/../lib/gcc/arm-none-eabi/6.2.1/v7-a/fpv3/hard/crtbegin.o
                0x0000000000124010                __fini_array_end = .

.ARM.attributes
                0x0000000000124010       0x33
                0x0000000000124010                __ARM.attributes_start = .
 *(.ARM.attributes)
 .ARM.attributes
                0x0000000000124010       0x21 c:/xilinx/sdk/2017.2/gnu/aarch32/nt/gcc-arm-none-eabi/bin/../lib/gcc/arm-none-eabi/6.2.1/v7-a/fpv3/hard/crti.o
 .ARM.attributes
                0x0000000000124031       0x33 c:/xilinx/sdk/2017.2/gnu/aarch32/nt/gcc-arm-none-eabi/bin/../lib/gcc/arm-none-eabi/6.2.1/v7-a/fpv3/hard/crtbegin.o
 .ARM.attributes
                0x0000000000124064       0x3d ./src/echo_test.o
 .ARM.attributes
                0x00000000001240a1       0x3d ./src/helper.o
 .ARM.attributes
                0x00000000001240de       0x3d ./src/platform_info.o
 .ARM.attributes
                0x000000000012411b       0x3d ./src/rsc_table.o
 .ARM.attributes
                0x0000000000124158       0x3d ../../slave_bsp/ps7_cortexa9_1/lib\libxil.a(xscugic.o)
 .ARM.attributes
                0x0000000000124195       0x3d ../../slave_bsp/ps7_cortexa9_1/lib\libxil.a(xscugic_intr.o)
 .ARM.attributes
                0x00000000001241d2       0x3d ../../slave_bsp/ps7_cortexa9_1/lib\libxil.a(xscugic_sinit.o)
 .ARM.attributes
                0x000000000012420f       0x29 ../../slave_bsp/ps7_cortexa9_1/lib\libxil.a(asm_vectors.o)
 .ARM.attributes
                0x0000000000124238       0x29 ../../slave_bsp/ps7_cortexa9_1/lib\libxil.a(boot.o)
 .ARM.attributes
                0x0000000000124261       0x29 ../../slave_bsp/ps7_cortexa9_1/lib\libxil.a(translation_table.o)
 .ARM.attributes
                0x000000000012428a       0x3d ../../slave_bsp/ps7_cortexa9_1/lib\libxil.a(vectors.o)
 .ARM.attributes
                0x00000000001242c7       0x29 ../../slave_bsp/ps7_cortexa9_1/lib\libxil.a(xil-crt0.o)
 .ARM.attributes
                0x00000000001242f0       0x3d ../../slave_bsp/ps7_cortexa9_1/lib\libxil.a(xil_assert.o)
 .ARM.attributes
                0x000000000012432d       0x3d ../../slave_bsp/ps7_cortexa9_1/lib\libxil.a(xil_cache.o)
 .ARM.attributes
                0x000000000012436a       0x3d ../../slave_bsp/ps7_cortexa9_1/lib\libxil.a(xil_exception.o)
 .ARM.attributes
                0x00000000001243a7       0x3d ../../slave_bsp/ps7_cortexa9_1/lib\libxil.a(xil_printf.o)
 .ARM.attributes
                0x00000000001243e4       0x3d ../../slave_bsp/ps7_cortexa9_1/lib\libxil.a(xscugic_g.o)
 .ARM.attributes
                0x0000000000124421       0x29 ../../slave_bsp/ps7_cortexa9_1/lib\libxil.a(cpu_init.o)
 .ARM.attributes
                0x000000000012444a       0x3d ../../slave_bsp/ps7_cortexa9_1/lib\libxil.a(outbyte.o)
 .ARM.attributes
                0x0000000000124487       0x3d ../../slave_bsp/ps7_cortexa9_1/lib\libxil.a(xuartps_hw.o)
 .ARM.attributes
                0x00000000001244c4       0x21 c:/xilinx/sdk/2017.2/gnu/aarch32/nt/gcc-arm-none-eabi/bin/../lib/gcc/arm-none-eabi/6.2.1/v7-a/fpv3/hard\libgcc.a(_udivsi3.o)
 .ARM.attributes
                0x00000000001244e5       0x21 c:/xilinx/sdk/2017.2/gnu/aarch32/nt/gcc-arm-none-eabi/bin/../lib/gcc/arm-none-eabi/6.2.1/v7-a/fpv3/hard\libgcc.a(_dvmd_tls.o)
 .ARM.attributes
                0x0000000000124506       0x33 c:/xilinx/sdk/2017.2/gnu/aarch32/nt/gcc-arm-none-eabi/bin/../arm-none-eabi/libc/usr/lib/v7-a/fpv3/hard\libc.a(lib_a-ctype_.o)
 .ARM.attributes
                0x0000000000124539       0x33 c:/xilinx/sdk/2017.2/gnu/aarch32/nt/gcc-arm-none-eabi/bin/../arm-none-eabi/libc/usr/lib/v7-a/fpv3/hard\libc.a(lib_a-exit.o)
 .ARM.attributes
                0x000000000012456c       0x33 c:/xilinx/sdk/2017.2/gnu/aarch32/nt/gcc-arm-none-eabi/bin/../arm-none-eabi/libc/usr/lib/v7-a/fpv3/hard\libc.a(lib_a-fini.o)
 .ARM.attributes
                0x000000000012459f       0x33 c:/xilinx/sdk/2017.2/gnu/aarch32/nt/gcc-arm-none-eabi/bin/../arm-none-eabi/libc/usr/lib/v7-a/fpv3/hard\libc.a(lib_a-impure.o)
 .ARM.attributes
                0x00000000001245d2       0x33 c:/xilinx/sdk/2017.2/gnu/aarch32/nt/gcc-arm-none-eabi/bin/../arm-none-eabi/libc/usr/lib/v7-a/fpv3/hard\libc.a(lib_a-init.o)
 .ARM.attributes
                0x0000000000124605       0x1b c:/xilinx/sdk/2017.2/gnu/aarch32/nt/gcc-arm-none-eabi/bin/../arm-none-eabi/libc/usr/lib/v7-a/fpv3/hard\libc.a(lib_a-strlen.o)
 .ARM.attributes
                0x0000000000124620       0x33 c:/xilinx/sdk/2017.2/gnu/aarch32/nt/gcc-arm-none-eabi/bin/../arm-none-eabi/libc/usr/lib/v7-a/fpv3/hard\libc.a(lib_a-__call_atexit.o)
 .ARM.attributes
                0x0000000000124653       0x3d ../../slave_bsp/ps7_cortexa9_1/lib\libxil.a(_exit.o)
 .ARM.attributes
                0x0000000000124690       0x3d ../../slave_bsp/ps7_cortexa9_1/lib\libmetal.a(init.c.obj)
 .ARM.attributes
                0x00000000001246cd       0x3d ../../slave_bsp/ps7_cortexa9_1/lib\libmetal.a(log.c.obj)
 .ARM.attributes
                0x000000000012470a       0x3d ../../slave_bsp/ps7_cortexa9_1/lib\libmetal.a(init.c.obj)
 .ARM.attributes
                0x0000000000124747       0x3d ../../slave_bsp/ps7_cortexa9_1/lib\libmetal.a(irq.c.obj)
 .ARM.attributes
                0x0000000000124784       0x3d ../../slave_bsp/ps7_cortexa9_1/lib\libmetal.a(sys.c.obj)
 .ARM.attributes
                0x00000000001247c1       0x3d ../../slave_bsp/ps7_cortexa9_1/lib\libopen_amp.a(hil.c.obj)
 .ARM.attributes
                0x00000000001247fe       0x3d ../../slave_bsp/ps7_cortexa9_1/lib\libopen_amp.a(firmware.c.obj)
 .ARM.attributes
                0x000000000012483b       0x3d ../../slave_bsp/ps7_cortexa9_1/lib\libopen_amp.a(virtqueue.c.obj)
 .ARM.attributes
                0x0000000000124878       0x3d ../../slave_bsp/ps7_cortexa9_1/lib\libopen_amp.a(rpmsg.c.obj)
 .ARM.attributes
                0x00000000001248b5       0x3d ../../slave_bsp/ps7_cortexa9_1/lib\libopen_amp.a(rpmsg_core.c.obj)
 .ARM.attributes
                0x00000000001248f2       0x3d ../../slave_bsp/ps7_cortexa9_1/lib\libopen_amp.a(remoteproc.c.obj)
 .ARM.attributes
                0x000000000012492f       0x3d ../../slave_bsp/ps7_cortexa9_1/lib\libopen_amp.a(remoteproc_loader.c.obj)
 .ARM.attributes
                0x000000000012496c       0x3d ../../slave_bsp/ps7_cortexa9_1/lib\libopen_amp.a(rsc_table_parser.c.obj)
 .ARM.attributes
                0x00000000001249a9       0x3d ../../slave_bsp/ps7_cortexa9_1/lib\libopen_amp.a(zynq_remoteproc_a9.c.obj)
 .ARM.attributes
                0x00000000001249e6       0x3d ../../slave_bsp/ps7_cortexa9_1/lib\libopen_amp.a(sh_mem.c.obj)
 .ARM.attributes
                0x0000000000124a23       0x3d ../../slave_bsp/ps7_cortexa9_1/lib\libopen_amp.a(remote_device.c.obj)
 .ARM.attributes
                0x0000000000124a60       0x3d ../../slave_bsp/ps7_cortexa9_1/lib\libopen_amp.a(elf_loader.c.obj)
 .ARM.attributes
                0x0000000000124a9d       0x21 c:/xilinx/sdk/2017.2/gnu/aarch32/nt/gcc-arm-none-eabi/bin/../lib/gcc/arm-none-eabi/6.2.1/v7-a/fpv3/hard\libgcc.a(_divsi3.o)
 .ARM.attributes
                0x0000000000124abe       0x33 c:/xilinx/sdk/2017.2/gnu/aarch32/nt/gcc-arm-none-eabi/bin/../arm-none-eabi/libc/usr/lib/v7-a/fpv3/hard\libc.a(lib_a-assert.o)
 .ARM.attributes
                0x0000000000124af1       0x33 c:/xilinx/sdk/2017.2/gnu/aarch32/nt/gcc-arm-none-eabi/bin/../arm-none-eabi/libc/usr/lib/v7-a/fpv3/hard\libc.a(lib_a-fiprintf.o)
 .ARM.attributes
                0x0000000000124b24       0x33 c:/xilinx/sdk/2017.2/gnu/aarch32/nt/gcc-arm-none-eabi/bin/../arm-none-eabi/libc/usr/lib/v7-a/fpv3/hard\libc.a(lib_a-malloc.o)
 .ARM.attributes
                0x0000000000124b57       0x33 c:/xilinx/sdk/2017.2/gnu/aarch32/nt/gcc-arm-none-eabi/bin/../arm-none-eabi/libc/usr/lib/v7-a/fpv3/hard\libc.a(lib_a-mallocr.o)
 .ARM.attributes
                0x0000000000124b8a       0x1b c:/xilinx/sdk/2017.2/gnu/aarch32/nt/gcc-arm-none-eabi/bin/../arm-none-eabi/libc/usr/lib/v7-a/fpv3/hard\libc.a(lib_a-memcpy.o)
 .ARM.attributes
                0x0000000000124ba5       0x33 c:/xilinx/sdk/2017.2/gnu/aarch32/nt/gcc-arm-none-eabi/bin/../arm-none-eabi/libc/usr/lib/v7-a/fpv3/hard\libc.a(lib_a-memset.o)
 .ARM.attributes
                0x0000000000124bd8       0x33 c:/xilinx/sdk/2017.2/gnu/aarch32/nt/gcc-arm-none-eabi/bin/../arm-none-eabi/libc/usr/lib/v7-a/fpv3/hard\libc.a(lib_a-mlock.o)
 .ARM.attributes
                0x0000000000124c0b       0x33 c:/xilinx/sdk/2017.2/gnu/aarch32/nt/gcc-arm-none-eabi/bin/../arm-none-eabi/libc/usr/lib/v7-a/fpv3/hard\libc.a(lib_a-printf.o)
 .ARM.attributes
                0x0000000000124c3e       0x33 c:/xilinx/sdk/2017.2/gnu/aarch32/nt/gcc-arm-none-eabi/bin/../arm-none-eabi/libc/usr/lib/v7-a/fpv3/hard\libc.a(lib_a-sbrkr.o)
 .ARM.attributes
                0x0000000000124c71       0x1f c:/xilinx/sdk/2017.2/gnu/aarch32/nt/gcc-arm-none-eabi/bin/../arm-none-eabi/libc/usr/lib/v7-a/fpv3/hard\libc.a(lib_a-strcmp.o)
 .ARM.attributes
                0x0000000000124c90       0x33 c:/xilinx/sdk/2017.2/gnu/aarch32/nt/gcc-arm-none-eabi/bin/../arm-none-eabi/libc/usr/lib/v7-a/fpv3/hard\libc.a(lib_a-strcpy.o)
 .ARM.attributes
                0x0000000000124cc3       0x33 c:/xilinx/sdk/2017.2/gnu/aarch32/nt/gcc-arm-none-eabi/bin/../arm-none-eabi/libc/usr/lib/v7-a/fpv3/hard\libc.a(lib_a-strncmp.o)
 .ARM.attributes
                0x0000000000124cf6       0x33 c:/xilinx/sdk/2017.2/gnu/aarch32/nt/gcc-arm-none-eabi/bin/../arm-none-eabi/libc/usr/lib/v7-a/fpv3/hard\libc.a(lib_a-strncpy.o)
 .ARM.attributes
                0x0000000000124d29       0x33 c:/xilinx/sdk/2017.2/gnu/aarch32/nt/gcc-arm-none-eabi/bin/../arm-none-eabi/libc/usr/lib/v7-a/fpv3/hard\libc.a(lib_a-vfiprintf.o)
 .ARM.attributes
                0x0000000000124d5c       0x33 c:/xilinx/sdk/2017.2/gnu/aarch32/nt/gcc-arm-none-eabi/bin/../arm-none-eabi/libc/usr/lib/v7-a/fpv3/hard\libc.a(lib_a-vfprintf.o)
 .ARM.attributes
                0x0000000000124d8f       0x33 c:/xilinx/sdk/2017.2/gnu/aarch32/nt/gcc-arm-none-eabi/bin/../arm-none-eabi/libc/usr/lib/v7-a/fpv3/hard\libc.a(lib_a-wcrtomb.o)
 .ARM.attributes
                0x0000000000124dc2       0x33 c:/xilinx/sdk/2017.2/gnu/aarch32/nt/gcc-arm-none-eabi/bin/../arm-none-eabi/libc/usr/lib/v7-a/fpv3/hard\libc.a(lib_a-wcsrtombs.o)
 .ARM.attributes
                0x0000000000124df5       0x33 c:/xilinx/sdk/2017.2/gnu/aarch32/nt/gcc-arm-none-eabi/bin/../arm-none-eabi/libc/usr/lib/v7-a/fpv3/hard\libc.a(lib_a-wctomb_r.o)
 .ARM.attributes
                0x0000000000124e28       0x33 c:/xilinx/sdk/2017.2/gnu/aarch32/nt/gcc-arm-none-eabi/bin/../arm-none-eabi/libc/usr/lib/v7-a/fpv3/hard\libc.a(lib_a-wsetup.o)
 .ARM.attributes
                0x0000000000124e5b       0x33 c:/xilinx/sdk/2017.2/gnu/aarch32/nt/gcc-arm-none-eabi/bin/../arm-none-eabi/libc/usr/lib/v7-a/fpv3/hard\libc.a(lib_a-abort.o)
 .ARM.attributes
                0x0000000000124e8e       0x33 c:/xilinx/sdk/2017.2/gnu/aarch32/nt/gcc-arm-none-eabi/bin/../arm-none-eabi/libc/usr/lib/v7-a/fpv3/hard\libc.a(lib_a-dtoa.o)
 .ARM.attributes
                0x0000000000124ec1       0x33 c:/xilinx/sdk/2017.2/gnu/aarch32/nt/gcc-arm-none-eabi/bin/../arm-none-eabi/libc/usr/lib/v7-a/fpv3/hard\libc.a(lib_a-fflush.o)
 .ARM.attributes
                0x0000000000124ef4       0x33 c:/xilinx/sdk/2017.2/gnu/aarch32/nt/gcc-arm-none-eabi/bin/../arm-none-eabi/libc/usr/lib/v7-a/fpv3/hard\libc.a(lib_a-findfp.o)
 .ARM.attributes
                0x0000000000124f27       0x33 c:/xilinx/sdk/2017.2/gnu/aarch32/nt/gcc-arm-none-eabi/bin/../arm-none-eabi/libc/usr/lib/v7-a/fpv3/hard\libc.a(lib_a-fputwc.o)
 .ARM.attributes
                0x0000000000124f5a       0x33 c:/xilinx/sdk/2017.2/gnu/aarch32/nt/gcc-arm-none-eabi/bin/../arm-none-eabi/libc/usr/lib/v7-a/fpv3/hard\libc.a(lib_a-freer.o)
 .ARM.attributes
                0x0000000000124f8d       0x33 c:/xilinx/sdk/2017.2/gnu/aarch32/nt/gcc-arm-none-eabi/bin/../arm-none-eabi/libc/usr/lib/v7-a/fpv3/hard\libc.a(lib_a-fvwrite.o)
 .ARM.attributes
                0x0000000000124fc0       0x33 c:/xilinx/sdk/2017.2/gnu/aarch32/nt/gcc-arm-none-eabi/bin/../arm-none-eabi/libc/usr/lib/v7-a/fpv3/hard\libc.a(lib_a-fwalk.o)
 .ARM.attributes
                0x0000000000124ff3       0x33 c:/xilinx/sdk/2017.2/gnu/aarch32/nt/gcc-arm-none-eabi/bin/../arm-none-eabi/libc/usr/lib/v7-a/fpv3/hard\libc.a(lib_a-locale.o)
 .ARM.attributes
                0x0000000000125026       0x33 c:/xilinx/sdk/2017.2/gnu/aarch32/nt/gcc-arm-none-eabi/bin/../arm-none-eabi/libc/usr/lib/v7-a/fpv3/hard\libc.a(lib_a-makebuf.o)
 .ARM.attributes
                0x0000000000125059       0x33 c:/xilinx/sdk/2017.2/gnu/aarch32/nt/gcc-arm-none-eabi/bin/../arm-none-eabi/libc/usr/lib/v7-a/fpv3/hard\libc.a(lib_a-mbtowc_r.o)
 .ARM.attributes
                0x000000000012508c       0x1d c:/xilinx/sdk/2017.2/gnu/aarch32/nt/gcc-arm-none-eabi/bin/../arm-none-eabi/libc/usr/lib/v7-a/fpv3/hard\libc.a(lib_a-memchr.o)
 .ARM.attributes
                0x00000000001250a9       0x33 c:/xilinx/sdk/2017.2/gnu/aarch32/nt/gcc-arm-none-eabi/bin/../arm-none-eabi/libc/usr/lib/v7-a/fpv3/hard\libc.a(lib_a-memmove.o)
 .ARM.attributes
                0x00000000001250dc       0x33 c:/xilinx/sdk/2017.2/gnu/aarch32/nt/gcc-arm-none-eabi/bin/../arm-none-eabi/libc/usr/lib/v7-a/fpv3/hard\libc.a(lib_a-mprec.o)
 .ARM.attributes
                0x000000000012510f       0x33 c:/xilinx/sdk/2017.2/gnu/aarch32/nt/gcc-arm-none-eabi/bin/../arm-none-eabi/libc/usr/lib/v7-a/fpv3/hard\libc.a(lib_a-reallocr.o)
 .ARM.attributes
                0x0000000000125142       0x33 c:/xilinx/sdk/2017.2/gnu/aarch32/nt/gcc-arm-none-eabi/bin/../arm-none-eabi/libc/usr/lib/v7-a/fpv3/hard\libc.a(lib_a-reent.o)
 .ARM.attributes
                0x0000000000125175       0x33 c:/xilinx/sdk/2017.2/gnu/aarch32/nt/gcc-arm-none-eabi/bin/../arm-none-eabi/libc/usr/lib/v7-a/fpv3/hard\libc.a(lib_a-s_frexp.o)
 .ARM.attributes
                0x00000000001251a8       0x33 c:/xilinx/sdk/2017.2/gnu/aarch32/nt/gcc-arm-none-eabi/bin/../arm-none-eabi/libc/usr/lib/v7-a/fpv3/hard\libc.a(lib_a-signal.o)
 .ARM.attributes
                0x00000000001251db       0x33 c:/xilinx/sdk/2017.2/gnu/aarch32/nt/gcc-arm-none-eabi/bin/../arm-none-eabi/libc/usr/lib/v7-a/fpv3/hard\libc.a(lib_a-signalr.o)
 .ARM.attributes
                0x000000000012520e       0x33 c:/xilinx/sdk/2017.2/gnu/aarch32/nt/gcc-arm-none-eabi/bin/../arm-none-eabi/libc/usr/lib/v7-a/fpv3/hard\libc.a(lib_a-stdio.o)
 .ARM.attributes
                0x0000000000125241       0x33 c:/xilinx/sdk/2017.2/gnu/aarch32/nt/gcc-arm-none-eabi/bin/../arm-none-eabi/libc/usr/lib/v7-a/fpv3/hard\libc.a(lib_a-strcasecmp.o)
 .ARM.attributes
                0x0000000000125274       0x33 c:/xilinx/sdk/2017.2/gnu/aarch32/nt/gcc-arm-none-eabi/bin/../arm-none-eabi/libc/usr/lib/v7-a/fpv3/hard\libc.a(lib_a-strcat.o)
 .ARM.attributes
                0x00000000001252a7       0x33 c:/xilinx/sdk/2017.2/gnu/aarch32/nt/gcc-arm-none-eabi/bin/../arm-none-eabi/libc/usr/lib/v7-a/fpv3/hard\libc.a(lib_a-strchr.o)
 .ARM.attributes
                0x00000000001252da       0x33 c:/xilinx/sdk/2017.2/gnu/aarch32/nt/gcc-arm-none-eabi/bin/../arm-none-eabi/libc/usr/lib/v7-a/fpv3/hard\libc.a(lib_a-strlcpy.o)
 .ARM.attributes
                0x000000000012530d       0x33 c:/xilinx/sdk/2017.2/gnu/aarch32/nt/gcc-arm-none-eabi/bin/../arm-none-eabi/libc/usr/lib/v7-a/fpv3/hard\libc.a(lib_a-strncasecmp.o)
 .ARM.attributes
                0x0000000000125340       0x33 c:/xilinx/sdk/2017.2/gnu/aarch32/nt/gcc-arm-none-eabi/bin/../arm-none-eabi/libc/usr/lib/v7-a/fpv3/hard\libc.a(lib_a-strtol.o)
 .ARM.attributes
                0x0000000000125373       0x33 c:/xilinx/sdk/2017.2/gnu/aarch32/nt/gcc-arm-none-eabi/bin/../arm-none-eabi/libc/usr/lib/v7-a/fpv3/hard\libc.a(lib_a-wbuf.o)
 .ARM.attributes
                0x00000000001253a6       0x33 c:/xilinx/sdk/2017.2/gnu/aarch32/nt/gcc-arm-none-eabi/bin/../arm-none-eabi/libc/usr/lib/v7-a/fpv3/hard\libc.a(lib_a-wcsnrtombs.o)
 .ARM.attributes
                0x00000000001253d9       0x33 c:/xilinx/sdk/2017.2/gnu/aarch32/nt/gcc-arm-none-eabi/bin/../arm-none-eabi/libc/usr/lib/v7-a/fpv3/hard\libc.a(lib_a-writer.o)
 .ARM.attributes
                0x000000000012540c       0x33 c:/xilinx/sdk/2017.2/gnu/aarch32/nt/gcc-arm-none-eabi/bin/../arm-none-eabi/libc/usr/lib/v7-a/fpv3/hard\libc.a(lib_a-callocr.o)
 .ARM.attributes
                0x000000000012543f       0x33 c:/xilinx/sdk/2017.2/gnu/aarch32/nt/gcc-arm-none-eabi/bin/../arm-none-eabi/libc/usr/lib/v7-a/fpv3/hard\libc.a(lib_a-closer.o)
 .ARM.attributes
                0x0000000000125472       0x33 c:/xilinx/sdk/2017.2/gnu/aarch32/nt/gcc-arm-none-eabi/bin/../arm-none-eabi/libc/usr/lib/v7-a/fpv3/hard\libc.a(lib_a-fclose.o)
 .ARM.attributes
                0x00000000001254a5       0x33 c:/xilinx/sdk/2017.2/gnu/aarch32/nt/gcc-arm-none-eabi/bin/../arm-none-eabi/libc/usr/lib/v7-a/fpv3/hard\libc.a(lib_a-fstatr.o)
 .ARM.attributes
                0x00000000001254d8       0x33 c:/xilinx/sdk/2017.2/gnu/aarch32/nt/gcc-arm-none-eabi/bin/../arm-none-eabi/libc/usr/lib/v7-a/fpv3/hard\libc.a(lib_a-getenv_r.o)
 .ARM.attributes
                0x000000000012550b       0x33 c:/xilinx/sdk/2017.2/gnu/aarch32/nt/gcc-arm-none-eabi/bin/../arm-none-eabi/libc/usr/lib/v7-a/fpv3/hard\libc.a(lib_a-isattyr.o)
 .ARM.attributes
                0x000000000012553e       0x33 c:/xilinx/sdk/2017.2/gnu/aarch32/nt/gcc-arm-none-eabi/bin/../arm-none-eabi/libc/usr/lib/v7-a/fpv3/hard\libc.a(lib_a-lseekr.o)
 .ARM.attributes
                0x0000000000125571       0x33 c:/xilinx/sdk/2017.2/gnu/aarch32/nt/gcc-arm-none-eabi/bin/../arm-none-eabi/libc/usr/lib/v7-a/fpv3/hard\libc.a(lib_a-readr.o)
 .ARM.attributes
                0x00000000001255a4       0x33 c:/xilinx/sdk/2017.2/gnu/aarch32/nt/gcc-arm-none-eabi/bin/../arm-none-eabi/libc/usr/lib/v7-a/fpv3/hard\libc.a(lib_a-environ.o)
 .ARM.attributes
                0x00000000001255d7       0x33 c:/xilinx/sdk/2017.2/gnu/aarch32/nt/gcc-arm-none-eabi/bin/../arm-none-eabi/libc/usr/lib/v7-a/fpv3/hard\libc.a(lib_a-envlock.o)
 .ARM.attributes
                0x000000000012560a       0x3d ../../slave_bsp/ps7_cortexa9_1/lib\libxil.a(_sbrk.o)
 .ARM.attributes
                0x0000000000125647       0x3d ../../slave_bsp/ps7_cortexa9_1/lib\libxil.a(fstat.o)
 .ARM.attributes
                0x0000000000125684       0x3d ../../slave_bsp/ps7_cortexa9_1/lib\libxil.a(getpid.o)
 .ARM.attributes
                0x00000000001256c1       0x3d ../../slave_bsp/ps7_cortexa9_1/lib\libxil.a(isatty.o)
 .ARM.attributes
                0x00000000001256fe       0x3d ../../slave_bsp/ps7_cortexa9_1/lib\libxil.a(kill.o)
 .ARM.attributes
                0x000000000012573b       0x3d ../../slave_bsp/ps7_cortexa9_1/lib\libxil.a(lseek.o)
 .ARM.attributes
                0x0000000000125778       0x3d ../../slave_bsp/ps7_cortexa9_1/lib\libxil.a(xil_mmu.o)
 .ARM.attributes
                0x00000000001257b5       0x3d ../../slave_bsp/ps7_cortexa9_1/lib\libxil.a(errno.o)
 .ARM.attributes
                0x00000000001257f2       0x3d ../../slave_bsp/ps7_cortexa9_1/lib\libmetal.a(device.c.obj)
 .ARM.attributes
                0x000000000012582f       0x3d ../../slave_bsp/ps7_cortexa9_1/lib\libmetal.a(io.c.obj)
 .ARM.attributes
                0x000000000012586c       0x3d ../../slave_bsp/ps7_cortexa9_1/lib\libmetal.a(shmem.c.obj)
 .ARM.attributes
                0x00000000001258a9       0x3d ../../slave_bsp/ps7_cortexa9_1/lib\libmetal.a(cache.c.obj)
 .ARM.attributes
                0x00000000001258e6       0x3d ../../slave_bsp/ps7_cortexa9_1/lib\libmetal.a(io.c.obj)
 .ARM.attributes
                0x0000000000125923       0x3d ../../slave_bsp/ps7_cortexa9_1/lib\libmetal.a(sleep.c.obj)
 .ARM.attributes
                0x0000000000125960       0x3d ../../slave_bsp/ps7_cortexa9_1/lib\libmetal.a(shmem.c.obj)
 .ARM.attributes
                0x000000000012599d       0x3d ../../slave_bsp/ps7_cortexa9_1/lib\libopen_amp.a(rpmsg_retarget.c.obj)
 .ARM.attributes
                0x00000000001259da       0x21 c:/xilinx/sdk/2017.2/gnu/aarch32/nt/gcc-arm-none-eabi/bin/../lib/gcc/arm-none-eabi/6.2.1/v7-a/fpv3/hard\libgcc.a(_aeabi_uldivmod.o)
 .ARM.attributes
                0x00000000001259fb       0x33 c:/xilinx/sdk/2017.2/gnu/aarch32/nt/gcc-arm-none-eabi/bin/../lib/gcc/arm-none-eabi/6.2.1/v7-a/fpv3/hard\libgcc.a(_udivmoddi4.o)
 .ARM.attributes
                0x0000000000125a2e       0x33 c:/xilinx/sdk/2017.2/gnu/aarch32/nt/gcc-arm-none-eabi/bin/../lib/gcc/arm-none-eabi/6.2.1/v7-a/fpv3/hard/crtend.o
 .ARM.attributes
                0x0000000000125a61       0x21 c:/xilinx/sdk/2017.2/gnu/aarch32/nt/gcc-arm-none-eabi/bin/../lib/gcc/arm-none-eabi/6.2.1/v7-a/fpv3/hard/crtn.o
                0x0000000000125a82                __ARM.attributes_end = .

.sdata          0x0000000000124010        0x0
                0x0000000000124010                __sdata_start = .
 *(.sdata)
 *(.sdata.*)
 *(.gnu.linkonce.s.*)
                0x0000000000124010                __sdata_end = .

.sbss           0x0000000000124010        0x0
                0x0000000000124010                __sbss_start = .
 *(.sbss)
 *(.sbss.*)
 *(.gnu.linkonce.sb.*)
                0x0000000000124010                __sbss_end = .

.tdata          0x0000000000124010        0x0
                0x0000000000124010                __tdata_start = .
 *(.tdata)
 *(.tdata.*)
 *(.gnu.linkonce.td.*)
                0x0000000000124010                __tdata_end = .

.tbss           0x0000000000124010        0x0
                0x0000000000124010                __tbss_start = .
 *(.tbss)
 *(.tbss.*)
 *(.gnu.linkonce.tb.*)
                0x0000000000124010                __tbss_end = .

.bss            0x0000000000124010     0x406c
                0x0000000000124010                __bss_start = .
 *(.bss)
 .bss           0x0000000000124010        0x0 c:/xilinx/sdk/2017.2/gnu/aarch32/nt/gcc-arm-none-eabi/bin/../lib/gcc/arm-none-eabi/6.2.1/v7-a/fpv3/hard/crti.o
 .bss           0x0000000000124010       0x1c c:/xilinx/sdk/2017.2/gnu/aarch32/nt/gcc-arm-none-eabi/bin/../lib/gcc/arm-none-eabi/6.2.1/v7-a/fpv3/hard/crtbegin.o
 .bss           0x000000000012402c       0x18 ./src/echo_test.o
 .bss           0x0000000000124044        0xc ./src/helper.o
 .bss           0x0000000000124050        0x0 ./src/platform_info.o
 .bss           0x0000000000124050        0x0 ./src/rsc_table.o
 .bss           0x0000000000124050        0x0 ../../slave_bsp/ps7_cortexa9_1/lib\libxil.a(xscugic.o)
 .bss           0x0000000000124050        0x0 ../../slave_bsp/ps7_cortexa9_1/lib\libxil.a(xscugic_intr.o)
 .bss           0x0000000000124050        0x0 ../../slave_bsp/ps7_cortexa9_1/lib\libxil.a(xscugic_sinit.o)
 .bss           0x0000000000124050        0x0 ../../slave_bsp/ps7_cortexa9_1/lib\libxil.a(asm_vectors.o)
 .bss           0x0000000000124050        0x0 ../../slave_bsp/ps7_cortexa9_1/lib\libxil.a(boot.o)
 .bss           0x0000000000124050        0x0 ../../slave_bsp/ps7_cortexa9_1/lib\libxil.a(translation_table.o)
 .bss           0x0000000000124050        0x0 ../../slave_bsp/ps7_cortexa9_1/lib\libxil.a(vectors.o)
 .bss           0x0000000000124050        0x0 ../../slave_bsp/ps7_cortexa9_1/lib\libxil.a(xil-crt0.o)
 .bss           0x0000000000124050        0x4 ../../slave_bsp/ps7_cortexa9_1/lib\libxil.a(xil_assert.o)
 .bss           0x0000000000124054        0x0 ../../slave_bsp/ps7_cortexa9_1/lib\libxil.a(xil_cache.o)
 .bss           0x0000000000124054        0x0 ../../slave_bsp/ps7_cortexa9_1/lib\libxil.a(xil_exception.o)
 .bss           0x0000000000124054        0x0 ../../slave_bsp/ps7_cortexa9_1/lib\libxil.a(xil_printf.o)
 .bss           0x0000000000124054        0x0 ../../slave_bsp/ps7_cortexa9_1/lib\libxil.a(xscugic_g.o)
 .bss           0x0000000000124054        0x0 ../../slave_bsp/ps7_cortexa9_1/lib\libxil.a(cpu_init.o)
 .bss           0x0000000000124054        0x0 ../../slave_bsp/ps7_cortexa9_1/lib\libxil.a(outbyte.o)
 .bss           0x0000000000124054        0x0 ../../slave_bsp/ps7_cortexa9_1/lib\libxil.a(xuartps_hw.o)
 .bss           0x0000000000124054        0x0 c:/xilinx/sdk/2017.2/gnu/aarch32/nt/gcc-arm-none-eabi/bin/../lib/gcc/arm-none-eabi/6.2.1/v7-a/fpv3/hard\libgcc.a(_udivsi3.o)
 .bss           0x0000000000124054        0x0 c:/xilinx/sdk/2017.2/gnu/aarch32/nt/gcc-arm-none-eabi/bin/../lib/gcc/arm-none-eabi/6.2.1/v7-a/fpv3/hard\libgcc.a(_dvmd_tls.o)
 .bss           0x0000000000124054        0x0 c:/xilinx/sdk/2017.2/gnu/aarch32/nt/gcc-arm-none-eabi/bin/../arm-none-eabi/libc/usr/lib/v7-a/fpv3/hard\libc.a(lib_a-ctype_.o)
 .bss           0x0000000000124054        0x0 c:/xilinx/sdk/2017.2/gnu/aarch32/nt/gcc-arm-none-eabi/bin/../arm-none-eabi/libc/usr/lib/v7-a/fpv3/hard\libc.a(lib_a-exit.o)
 .bss           0x0000000000124054        0x0 c:/xilinx/sdk/2017.2/gnu/aarch32/nt/gcc-arm-none-eabi/bin/../arm-none-eabi/libc/usr/lib/v7-a/fpv3/hard\libc.a(lib_a-fini.o)
 .bss           0x0000000000124054        0x0 c:/xilinx/sdk/2017.2/gnu/aarch32/nt/gcc-arm-none-eabi/bin/../arm-none-eabi/libc/usr/lib/v7-a/fpv3/hard\libc.a(lib_a-impure.o)
 .bss           0x0000000000124054        0x0 c:/xilinx/sdk/2017.2/gnu/aarch32/nt/gcc-arm-none-eabi/bin/../arm-none-eabi/libc/usr/lib/v7-a/fpv3/hard\libc.a(lib_a-init.o)
 .bss           0x0000000000124054        0x0 c:/xilinx/sdk/2017.2/gnu/aarch32/nt/gcc-arm-none-eabi/bin/../arm-none-eabi/libc/usr/lib/v7-a/fpv3/hard\libc.a(lib_a-strlen.o)
 .bss           0x0000000000124054        0x0 c:/xilinx/sdk/2017.2/gnu/aarch32/nt/gcc-arm-none-eabi/bin/../arm-none-eabi/libc/usr/lib/v7-a/fpv3/hard\libc.a(lib_a-__call_atexit.o)
 .bss           0x0000000000124054        0x0 ../../slave_bsp/ps7_cortexa9_1/lib\libxil.a(_exit.o)
 .bss           0x0000000000124054        0x0 ../../slave_bsp/ps7_cortexa9_1/lib\libmetal.a(init.c.obj)
 .bss           0x0000000000124054        0x0 ../../slave_bsp/ps7_cortexa9_1/lib\libmetal.a(log.c.obj)
 .bss           0x0000000000124054        0x0 ../../slave_bsp/ps7_cortexa9_1/lib\libmetal.a(init.c.obj)
 .bss           0x0000000000124054     0x3cf8 ../../slave_bsp/ps7_cortexa9_1/lib\libmetal.a(irq.c.obj)
 .bss           0x0000000000127d4c        0x0 ../../slave_bsp/ps7_cortexa9_1/lib\libmetal.a(sys.c.obj)
 .bss           0x0000000000127d4c        0x4 ../../slave_bsp/ps7_cortexa9_1/lib\libopen_amp.a(hil.c.obj)
                0x0000000000127d4c                hil_generic_start_paddr
 .bss           0x0000000000127d50        0x0 ../../slave_bsp/ps7_cortexa9_1/lib\libopen_amp.a(firmware.c.obj)
 .bss           0x0000000000127d50        0x0 ../../slave_bsp/ps7_cortexa9_1/lib\libopen_amp.a(virtqueue.c.obj)
 .bss           0x0000000000127d50        0x0 ../../slave_bsp/ps7_cortexa9_1/lib\libopen_amp.a(rpmsg.c.obj)
 .bss           0x0000000000127d50        0x0 ../../slave_bsp/ps7_cortexa9_1/lib\libopen_amp.a(rpmsg_core.c.obj)
 .bss           0x0000000000127d50        0x0 ../../slave_bsp/ps7_cortexa9_1/lib\libopen_amp.a(remoteproc.c.obj)
 .bss           0x0000000000127d50        0x0 ../../slave_bsp/ps7_cortexa9_1/lib\libopen_amp.a(remoteproc_loader.c.obj)
 .bss           0x0000000000127d50        0x0 ../../slave_bsp/ps7_cortexa9_1/lib\libopen_amp.a(rsc_table_parser.c.obj)
 .bss           0x0000000000127d50        0x0 ../../slave_bsp/ps7_cortexa9_1/lib\libopen_amp.a(zynq_remoteproc_a9.c.obj)
 .bss           0x0000000000127d50        0x0 ../../slave_bsp/ps7_cortexa9_1/lib\libopen_amp.a(sh_mem.c.obj)
 .bss           0x0000000000127d50        0x0 ../../slave_bsp/ps7_cortexa9_1/lib\libopen_amp.a(remote_device.c.obj)
 .bss           0x0000000000127d50        0x0 ../../slave_bsp/ps7_cortexa9_1/lib\libopen_amp.a(elf_loader.c.obj)
 .bss           0x0000000000127d50        0x0 c:/xilinx/sdk/2017.2/gnu/aarch32/nt/gcc-arm-none-eabi/bin/../lib/gcc/arm-none-eabi/6.2.1/v7-a/fpv3/hard\libgcc.a(_divsi3.o)
 .bss           0x0000000000127d50        0x0 c:/xilinx/sdk/2017.2/gnu/aarch32/nt/gcc-arm-none-eabi/bin/../arm-none-eabi/libc/usr/lib/v7-a/fpv3/hard\libc.a(lib_a-assert.o)
 .bss           0x0000000000127d50        0x0 c:/xilinx/sdk/2017.2/gnu/aarch32/nt/gcc-arm-none-eabi/bin/../arm-none-eabi/libc/usr/lib/v7-a/fpv3/hard\libc.a(lib_a-fiprintf.o)
 .bss           0x0000000000127d50        0x0 c:/xilinx/sdk/2017.2/gnu/aarch32/nt/gcc-arm-none-eabi/bin/../arm-none-eabi/libc/usr/lib/v7-a/fpv3/hard\libc.a(lib_a-malloc.o)
 .bss           0x0000000000127d50       0x34 c:/xilinx/sdk/2017.2/gnu/aarch32/nt/gcc-arm-none-eabi/bin/../arm-none-eabi/libc/usr/lib/v7-a/fpv3/hard\libc.a(lib_a-mallocr.o)
                0x0000000000127d50                __malloc_top_pad
                0x0000000000127d54                __malloc_current_mallinfo
                0x0000000000127d7c                __malloc_max_sbrked_mem
                0x0000000000127d80                __malloc_max_total_mem
 .bss           0x0000000000127d84        0x0 c:/xilinx/sdk/2017.2/gnu/aarch32/nt/gcc-arm-none-eabi/bin/../arm-none-eabi/libc/usr/lib/v7-a/fpv3/hard\libc.a(lib_a-memcpy.o)
 .bss           0x0000000000127d84        0x0 c:/xilinx/sdk/2017.2/gnu/aarch32/nt/gcc-arm-none-eabi/bin/../arm-none-eabi/libc/usr/lib/v7-a/fpv3/hard\libc.a(lib_a-memset.o)
 .bss           0x0000000000127d84        0x0 c:/xilinx/sdk/2017.2/gnu/aarch32/nt/gcc-arm-none-eabi/bin/../arm-none-eabi/libc/usr/lib/v7-a/fpv3/hard\libc.a(lib_a-mlock.o)
 .bss           0x0000000000127d84        0x0 c:/xilinx/sdk/2017.2/gnu/aarch32/nt/gcc-arm-none-eabi/bin/../arm-none-eabi/libc/usr/lib/v7-a/fpv3/hard\libc.a(lib_a-printf.o)
 .bss           0x0000000000127d84        0x0 c:/xilinx/sdk/2017.2/gnu/aarch32/nt/gcc-arm-none-eabi/bin/../arm-none-eabi/libc/usr/lib/v7-a/fpv3/hard\libc.a(lib_a-sbrkr.o)
 .bss           0x0000000000127d84        0x0 c:/xilinx/sdk/2017.2/gnu/aarch32/nt/gcc-arm-none-eabi/bin/../arm-none-eabi/libc/usr/lib/v7-a/fpv3/hard\libc.a(lib_a-strcmp.o)
 .bss           0x0000000000127d84        0x0 c:/xilinx/sdk/2017.2/gnu/aarch32/nt/gcc-arm-none-eabi/bin/../arm-none-eabi/libc/usr/lib/v7-a/fpv3/hard\libc.a(lib_a-strcpy.o)
 .bss           0x0000000000127d84        0x0 c:/xilinx/sdk/2017.2/gnu/aarch32/nt/gcc-arm-none-eabi/bin/../arm-none-eabi/libc/usr/lib/v7-a/fpv3/hard\libc.a(lib_a-strncmp.o)
 .bss           0x0000000000127d84        0x0 c:/xilinx/sdk/2017.2/gnu/aarch32/nt/gcc-arm-none-eabi/bin/../arm-none-eabi/libc/usr/lib/v7-a/fpv3/hard\libc.a(lib_a-strncpy.o)
 .bss           0x0000000000127d84        0x0 c:/xilinx/sdk/2017.2/gnu/aarch32/nt/gcc-arm-none-eabi/bin/../arm-none-eabi/libc/usr/lib/v7-a/fpv3/hard\libc.a(lib_a-vfiprintf.o)
 .bss           0x0000000000127d84        0x0 c:/xilinx/sdk/2017.2/gnu/aarch32/nt/gcc-arm-none-eabi/bin/../arm-none-eabi/libc/usr/lib/v7-a/fpv3/hard\libc.a(lib_a-vfprintf.o)
 .bss           0x0000000000127d84        0x0 c:/xilinx/sdk/2017.2/gnu/aarch32/nt/gcc-arm-none-eabi/bin/../arm-none-eabi/libc/usr/lib/v7-a/fpv3/hard\libc.a(lib_a-wcrtomb.o)
 .bss           0x0000000000127d84        0x0 c:/xilinx/sdk/2017.2/gnu/aarch32/nt/gcc-arm-none-eabi/bin/../arm-none-eabi/libc/usr/lib/v7-a/fpv3/hard\libc.a(lib_a-wcsrtombs.o)
 .bss           0x0000000000127d84        0x0 c:/xilinx/sdk/2017.2/gnu/aarch32/nt/gcc-arm-none-eabi/bin/../arm-none-eabi/libc/usr/lib/v7-a/fpv3/hard\libc.a(lib_a-wctomb_r.o)
 .bss           0x0000000000127d84        0x0 c:/xilinx/sdk/2017.2/gnu/aarch32/nt/gcc-arm-none-eabi/bin/../arm-none-eabi/libc/usr/lib/v7-a/fpv3/hard\libc.a(lib_a-wsetup.o)
 .bss           0x0000000000127d84        0x0 c:/xilinx/sdk/2017.2/gnu/aarch32/nt/gcc-arm-none-eabi/bin/../arm-none-eabi/libc/usr/lib/v7-a/fpv3/hard\libc.a(lib_a-abort.o)
 .bss           0x0000000000127d84        0x0 c:/xilinx/sdk/2017.2/gnu/aarch32/nt/gcc-arm-none-eabi/bin/../arm-none-eabi/libc/usr/lib/v7-a/fpv3/hard\libc.a(lib_a-dtoa.o)
 .bss           0x0000000000127d84        0x0 c:/xilinx/sdk/2017.2/gnu/aarch32/nt/gcc-arm-none-eabi/bin/../arm-none-eabi/libc/usr/lib/v7-a/fpv3/hard\libc.a(lib_a-fflush.o)
 .bss           0x0000000000127d84        0x0 c:/xilinx/sdk/2017.2/gnu/aarch32/nt/gcc-arm-none-eabi/bin/../arm-none-eabi/libc/usr/lib/v7-a/fpv3/hard\libc.a(lib_a-findfp.o)
 .bss           0x0000000000127d84        0x0 c:/xilinx/sdk/2017.2/gnu/aarch32/nt/gcc-arm-none-eabi/bin/../arm-none-eabi/libc/usr/lib/v7-a/fpv3/hard\libc.a(lib_a-fputwc.o)
 .bss           0x0000000000127d84        0x0 c:/xilinx/sdk/2017.2/gnu/aarch32/nt/gcc-arm-none-eabi/bin/../arm-none-eabi/libc/usr/lib/v7-a/fpv3/hard\libc.a(lib_a-freer.o)
 .bss           0x0000000000127d84        0x0 c:/xilinx/sdk/2017.2/gnu/aarch32/nt/gcc-arm-none-eabi/bin/../arm-none-eabi/libc/usr/lib/v7-a/fpv3/hard\libc.a(lib_a-fvwrite.o)
 .bss           0x0000000000127d84        0x0 c:/xilinx/sdk/2017.2/gnu/aarch32/nt/gcc-arm-none-eabi/bin/../arm-none-eabi/libc/usr/lib/v7-a/fpv3/hard\libc.a(lib_a-fwalk.o)
 .bss           0x0000000000127d84      0x2b8 c:/xilinx/sdk/2017.2/gnu/aarch32/nt/gcc-arm-none-eabi/bin/../arm-none-eabi/libc/usr/lib/v7-a/fpv3/hard\libc.a(lib_a-locale.o)
                0x0000000000128030                _PathLocale
                0x0000000000128034                __mlocale_changed
                0x0000000000128038                __nlocale_changed
 .bss           0x000000000012803c        0x0 c:/xilinx/sdk/2017.2/gnu/aarch32/nt/gcc-arm-none-eabi/bin/../arm-none-eabi/libc/usr/lib/v7-a/fpv3/hard\libc.a(lib_a-makebuf.o)
 .bss           0x000000000012803c        0x0 c:/xilinx/sdk/2017.2/gnu/aarch32/nt/gcc-arm-none-eabi/bin/../arm-none-eabi/libc/usr/lib/v7-a/fpv3/hard\libc.a(lib_a-mbtowc_r.o)
 .bss           0x000000000012803c        0x0 c:/xilinx/sdk/2017.2/gnu/aarch32/nt/gcc-arm-none-eabi/bin/../arm-none-eabi/libc/usr/lib/v7-a/fpv3/hard\libc.a(lib_a-memchr.o)
 .bss           0x000000000012803c        0x0 c:/xilinx/sdk/2017.2/gnu/aarch32/nt/gcc-arm-none-eabi/bin/../arm-none-eabi/libc/usr/lib/v7-a/fpv3/hard\libc.a(lib_a-memmove.o)
 .bss           0x000000000012803c        0x0 c:/xilinx/sdk/2017.2/gnu/aarch32/nt/gcc-arm-none-eabi/bin/../arm-none-eabi/libc/usr/lib/v7-a/fpv3/hard\libc.a(lib_a-mprec.o)
 .bss           0x000000000012803c        0x0 c:/xilinx/sdk/2017.2/gnu/aarch32/nt/gcc-arm-none-eabi/bin/../arm-none-eabi/libc/usr/lib/v7-a/fpv3/hard\libc.a(lib_a-reallocr.o)
 .bss           0x000000000012803c        0x0 c:/xilinx/sdk/2017.2/gnu/aarch32/nt/gcc-arm-none-eabi/bin/../arm-none-eabi/libc/usr/lib/v7-a/fpv3/hard\libc.a(lib_a-reent.o)
 .bss           0x000000000012803c        0x0 c:/xilinx/sdk/2017.2/gnu/aarch32/nt/gcc-arm-none-eabi/bin/../arm-none-eabi/libc/usr/lib/v7-a/fpv3/hard\libc.a(lib_a-s_frexp.o)
 .bss           0x000000000012803c        0x0 c:/xilinx/sdk/2017.2/gnu/aarch32/nt/gcc-arm-none-eabi/bin/../arm-none-eabi/libc/usr/lib/v7-a/fpv3/hard\libc.a(lib_a-signal.o)
 .bss           0x000000000012803c        0x0 c:/xilinx/sdk/2017.2/gnu/aarch32/nt/gcc-arm-none-eabi/bin/../arm-none-eabi/libc/usr/lib/v7-a/fpv3/hard\libc.a(lib_a-signalr.o)
 .bss           0x000000000012803c        0x0 c:/xilinx/sdk/2017.2/gnu/aarch32/nt/gcc-arm-none-eabi/bin/../arm-none-eabi/libc/usr/lib/v7-a/fpv3/hard\libc.a(lib_a-stdio.o)
 .bss           0x000000000012803c        0x0 c:/xilinx/sdk/2017.2/gnu/aarch32/nt/gcc-arm-none-eabi/bin/../arm-none-eabi/libc/usr/lib/v7-a/fpv3/hard\libc.a(lib_a-strcasecmp.o)
 .bss           0x000000000012803c        0x0 c:/xilinx/sdk/2017.2/gnu/aarch32/nt/gcc-arm-none-eabi/bin/../arm-none-eabi/libc/usr/lib/v7-a/fpv3/hard\libc.a(lib_a-strcat.o)
 .bss           0x000000000012803c        0x0 c:/xilinx/sdk/2017.2/gnu/aarch32/nt/gcc-arm-none-eabi/bin/../arm-none-eabi/libc/usr/lib/v7-a/fpv3/hard\libc.a(lib_a-strchr.o)
 .bss           0x000000000012803c        0x0 c:/xilinx/sdk/2017.2/gnu/aarch32/nt/gcc-arm-none-eabi/bin/../arm-none-eabi/libc/usr/lib/v7-a/fpv3/hard\libc.a(lib_a-strlcpy.o)
 .bss           0x000000000012803c        0x0 c:/xilinx/sdk/2017.2/gnu/aarch32/nt/gcc-arm-none-eabi/bin/../arm-none-eabi/libc/usr/lib/v7-a/fpv3/hard\libc.a(lib_a-strncasecmp.o)
 .bss           0x000000000012803c        0x0 c:/xilinx/sdk/2017.2/gnu/aarch32/nt/gcc-arm-none-eabi/bin/../arm-none-eabi/libc/usr/lib/v7-a/fpv3/hard\libc.a(lib_a-strtol.o)
 .bss           0x000000000012803c        0x0 c:/xilinx/sdk/2017.2/gnu/aarch32/nt/gcc-arm-none-eabi/bin/../arm-none-eabi/libc/usr/lib/v7-a/fpv3/hard\libc.a(lib_a-wbuf.o)
 .bss           0x000000000012803c        0x0 c:/xilinx/sdk/2017.2/gnu/aarch32/nt/gcc-arm-none-eabi/bin/../arm-none-eabi/libc/usr/lib/v7-a/fpv3/hard\libc.a(lib_a-wcsnrtombs.o)
 .bss           0x000000000012803c        0x0 c:/xilinx/sdk/2017.2/gnu/aarch32/nt/gcc-arm-none-eabi/bin/../arm-none-eabi/libc/usr/lib/v7-a/fpv3/hard\libc.a(lib_a-writer.o)
 .bss           0x000000000012803c        0x0 c:/xilinx/sdk/2017.2/gnu/aarch32/nt/gcc-arm-none-eabi/bin/../arm-none-eabi/libc/usr/lib/v7-a/fpv3/hard\libc.a(lib_a-callocr.o)
 .bss           0x000000000012803c        0x0 c:/xilinx/sdk/2017.2/gnu/aarch32/nt/gcc-arm-none-eabi/bin/../arm-none-eabi/libc/usr/lib/v7-a/fpv3/hard\libc.a(lib_a-closer.o)
 .bss           0x000000000012803c        0x0 c:/xilinx/sdk/2017.2/gnu/aarch32/nt/gcc-arm-none-eabi/bin/../arm-none-eabi/libc/usr/lib/v7-a/fpv3/hard\libc.a(lib_a-fclose.o)
 .bss           0x000000000012803c        0x0 c:/xilinx/sdk/2017.2/gnu/aarch32/nt/gcc-arm-none-eabi/bin/../arm-none-eabi/libc/usr/lib/v7-a/fpv3/hard\libc.a(lib_a-fstatr.o)
 .bss           0x000000000012803c        0x0 c:/xilinx/sdk/2017.2/gnu/aarch32/nt/gcc-arm-none-eabi/bin/../arm-none-eabi/libc/usr/lib/v7-a/fpv3/hard\libc.a(lib_a-getenv_r.o)
 .bss           0x000000000012803c        0x0 c:/xilinx/sdk/2017.2/gnu/aarch32/nt/gcc-arm-none-eabi/bin/../arm-none-eabi/libc/usr/lib/v7-a/fpv3/hard\libc.a(lib_a-isattyr.o)
 .bss           0x000000000012803c        0x0 c:/xilinx/sdk/2017.2/gnu/aarch32/nt/gcc-arm-none-eabi/bin/../arm-none-eabi/libc/usr/lib/v7-a/fpv3/hard\libc.a(lib_a-lseekr.o)
 .bss           0x000000000012803c        0x0 c:/xilinx/sdk/2017.2/gnu/aarch32/nt/gcc-arm-none-eabi/bin/../arm-none-eabi/libc/usr/lib/v7-a/fpv3/hard\libc.a(lib_a-readr.o)
 .bss           0x000000000012803c        0x4 c:/xilinx/sdk/2017.2/gnu/aarch32/nt/gcc-arm-none-eabi/bin/../arm-none-eabi/libc/usr/lib/v7-a/fpv3/hard\libc.a(lib_a-environ.o)
 .bss           0x0000000000128040        0x0 c:/xilinx/sdk/2017.2/gnu/aarch32/nt/gcc-arm-none-eabi/bin/../arm-none-eabi/libc/usr/lib/v7-a/fpv3/hard\libc.a(lib_a-envlock.o)
 .bss           0x0000000000128040        0x4 ../../slave_bsp/ps7_cortexa9_1/lib\libxil.a(_sbrk.o)
 .bss           0x0000000000128044        0x0 ../../slave_bsp/ps7_cortexa9_1/lib\libxil.a(fstat.o)
 .bss           0x0000000000128044        0x0 ../../slave_bsp/ps7_cortexa9_1/lib\libxil.a(getpid.o)
 .bss           0x0000000000128044        0x0 ../../slave_bsp/ps7_cortexa9_1/lib\libxil.a(isatty.o)
 .bss           0x0000000000128044        0x0 ../../slave_bsp/ps7_cortexa9_1/lib\libxil.a(kill.o)
 .bss           0x0000000000128044        0x0 ../../slave_bsp/ps7_cortexa9_1/lib\libxil.a(lseek.o)
 .bss           0x0000000000128044        0x0 ../../slave_bsp/ps7_cortexa9_1/lib\libxil.a(xil_mmu.o)
 .bss           0x0000000000128044        0x0 ../../slave_bsp/ps7_cortexa9_1/lib\libxil.a(errno.o)
 .bss           0x0000000000128044        0x0 ../../slave_bsp/ps7_cortexa9_1/lib\libmetal.a(device.c.obj)
 .bss           0x0000000000128044        0x0 ../../slave_bsp/ps7_cortexa9_1/lib\libmetal.a(io.c.obj)
 .bss           0x0000000000128044        0x0 ../../slave_bsp/ps7_cortexa9_1/lib\libmetal.a(shmem.c.obj)
 .bss           0x0000000000128044        0x0 ../../slave_bsp/ps7_cortexa9_1/lib\libmetal.a(cache.c.obj)
 .bss           0x0000000000128044        0x0 ../../slave_bsp/ps7_cortexa9_1/lib\libmetal.a(io.c.obj)
 .bss           0x0000000000128044        0x0 ../../slave_bsp/ps7_cortexa9_1/lib\libmetal.a(sleep.c.obj)
 .bss           0x0000000000128044        0x0 ../../slave_bsp/ps7_cortexa9_1/lib\libmetal.a(shmem.c.obj)
 .bss           0x0000000000128044        0x4 ../../slave_bsp/ps7_cortexa9_1/lib\libopen_amp.a(rpmsg_retarget.c.obj)
 .bss           0x0000000000128048        0x0 c:/xilinx/sdk/2017.2/gnu/aarch32/nt/gcc-arm-none-eabi/bin/../lib/gcc/arm-none-eabi/6.2.1/v7-a/fpv3/hard\libgcc.a(_aeabi_uldivmod.o)
 .bss           0x0000000000128048        0x0 c:/xilinx/sdk/2017.2/gnu/aarch32/nt/gcc-arm-none-eabi/bin/../lib/gcc/arm-none-eabi/6.2.1/v7-a/fpv3/hard\libgcc.a(_udivmoddi4.o)
 .bss           0x0000000000128048        0x0 c:/xilinx/sdk/2017.2/gnu/aarch32/nt/gcc-arm-none-eabi/bin/../lib/gcc/arm-none-eabi/6.2.1/v7-a/fpv3/hard/crtend.o
 .bss           0x0000000000128048        0x0 c:/xilinx/sdk/2017.2/gnu/aarch32/nt/gcc-arm-none-eabi/bin/../lib/gcc/arm-none-eabi/6.2.1/v7-a/fpv3/hard/crtn.o
 *(.bss.*)
 *(.gnu.linkonce.b.*)
 *(COMMON)
 COMMON         0x0000000000128048        0x4 ../../slave_bsp/ps7_cortexa9_1/lib\libxil.a(xil_assert.o)
                0x0000000000128048                Xil_AssertStatus
 COMMON         0x000000000012804c        0xc ../../slave_bsp/ps7_cortexa9_1/lib\libxil.a(xil_exception.o)
                0x000000000012804c                UndefinedExceptionAddr
                0x0000000000128050                PrefetchAbortAddr
                0x0000000000128054                DataAbortAddr
 COMMON         0x0000000000128058       0x20 ../../slave_bsp/ps7_cortexa9_1/lib\libmetal.a(init.c.obj)
                0x0000000000128058                _metal
 COMMON         0x0000000000128078        0x4 c:/xilinx/sdk/2017.2/gnu/aarch32/nt/gcc-arm-none-eabi/bin/../arm-none-eabi/libc/usr/lib/v7-a/fpv3/hard\libc.a(lib_a-reent.o)
                0x0000000000128078                errno
                0x000000000012807c                __bss_end = .
                0x0000000000124010                _SDA_BASE_ = (__sdata_start + ((__sbss_end - __sdata_start) / 0x2))
                0x000000000011c140                _SDA2_BASE_ = (__sdata2_start + ((__sbss2_end - __sdata2_start) / 0x2))

.heap           0x000000000012807c     0x4004
                0x0000000000128080                . = ALIGN (0x10)
 *fill*         0x000000000012807c        0x4 
                0x0000000000128080                _heap = .
                0x0000000000128080                HeapBase = .
                0x0000000000128080                _heap_start = .
                0x000000000012c080                . = (. + _HEAP_SIZE)
 *fill*         0x0000000000128080     0x4000 
                0x000000000012c080                _heap_end = .
                0x000000000012c080                HeapLimit = .

.stack          0x000000000012c080     0x4400
                0x000000000012c080                . = ALIGN (0x10)
                0x000000000012c080                _stack_end = .
                0x000000000012e080                . = (. + _STACK_SIZE)
 *fill*         0x000000000012c080     0x2000 
                0x000000000012e080                _stack = .
                0x000000000012e080                __stack = _stack
                0x000000000012e080                . = ALIGN (0x10)
                0x000000000012e080                _irq_stack_end = .
                0x000000000012f080                . = (. + _IRQ_STACK_SIZE)
 *fill*         0x000000000012e080     0x1000 
                0x000000000012f080                __irq_stack = .
                0x000000000012f080                _supervisor_stack_end = .
                0x000000000012f880                . = (. + _SUPERVISOR_STACK_SIZE)
 *fill*         0x000000000012f080      0x800 
                0x000000000012f880                . = ALIGN (0x10)
                0x000000000012f880                __supervisor_stack = .
                0x000000000012f880                _abort_stack_end = .
                0x000000000012fc80                . = (. + _ABORT_STACK_SIZE)
 *fill*         0x000000000012f880      0x400 
                0x000000000012fc80                . = ALIGN (0x10)
                0x000000000012fc80                __abort_stack = .
                0x000000000012fc80                _fiq_stack_end = .
                0x0000000000130080                . = (. + _FIQ_STACK_SIZE)
 *fill*         0x000000000012fc80      0x400 
                0x0000000000130080                . = ALIGN (0x10)
                0x0000000000130080                __fiq_stack = .
                0x0000000000130080                _undef_stack_end = .
                0x0000000000130480                . = (. + _UNDEF_STACK_SIZE)
 *fill*         0x0000000000130080      0x400 
                0x0000000000130480                . = ALIGN (0x10)
                0x0000000000130480                __undef_stack = .
                0x0000000000130480                _end = .
LOAD ./src/echo_test.o
LOAD ./src/helper.o
LOAD ./src/platform_info.o
LOAD ./src/rsc_table.o
START GROUP
LOAD ../../slave_bsp/ps7_cortexa9_1/lib\libxil.a
LOAD c:/xilinx/sdk/2017.2/gnu/aarch32/nt/gcc-arm-none-eabi/bin/../lib/gcc/arm-none-eabi/6.2.1/v7-a/fpv3/hard\libgcc.a
LOAD c:/xilinx/sdk/2017.2/gnu/aarch32/nt/gcc-arm-none-eabi/bin/../arm-none-eabi/libc/usr/lib/v7-a/fpv3/hard\libc.a
END GROUP
START GROUP
LOAD ../../slave_bsp/ps7_cortexa9_1/lib\libxil.a
LOAD ../../slave_bsp/ps7_cortexa9_1/lib\libmetal.a
LOAD ../../slave_bsp/ps7_cortexa9_1/lib\libopen_amp.a
LOAD c:/xilinx/sdk/2017.2/gnu/aarch32/nt/gcc-arm-none-eabi/bin/../lib/gcc/arm-none-eabi/6.2.1/v7-a/fpv3/hard\libgcc.a
LOAD c:/xilinx/sdk/2017.2/gnu/aarch32/nt/gcc-arm-none-eabi/bin/../arm-none-eabi/libc/usr/lib/v7-a/fpv3/hard\libc.a
END GROUP
START GROUP
LOAD ../../slave_bsp/ps7_cortexa9_1/lib\libxil.a
LOAD ../../slave_bsp/ps7_cortexa9_1/lib\libmetal.a
LOAD c:/xilinx/sdk/2017.2/gnu/aarch32/nt/gcc-arm-none-eabi/bin/../lib/gcc/arm-none-eabi/6.2.1/v7-a/fpv3/hard\libgcc.a
LOAD c:/xilinx/sdk/2017.2/gnu/aarch32/nt/gcc-arm-none-eabi/bin/../arm-none-eabi/libc/usr/lib/v7-a/fpv3/hard\libc.a
END GROUP
START GROUP
LOAD c:/xilinx/sdk/2017.2/gnu/aarch32/nt/gcc-arm-none-eabi/bin/../lib/gcc/arm-none-eabi/6.2.1/v7-a/fpv3/hard\libgcc.a
LOAD c:/xilinx/sdk/2017.2/gnu/aarch32/nt/gcc-arm-none-eabi/bin/../arm-none-eabi/libc/usr/lib/v7-a/fpv3/hard\libc.a
END GROUP
LOAD c:/xilinx/sdk/2017.2/gnu/aarch32/nt/gcc-arm-none-eabi/bin/../lib/gcc/arm-none-eabi/6.2.1/v7-a/fpv3/hard/crtend.o
LOAD c:/xilinx/sdk/2017.2/gnu/aarch32/nt/gcc-arm-none-eabi/bin/../lib/gcc/arm-none-eabi/6.2.1/v7-a/fpv3/hard/crtn.o
OUTPUT(slave_echo.elf elf32-littlearm)

.comment        0x0000000000000000       0x36
 .comment       0x0000000000000000       0x36 c:/xilinx/sdk/2017.2/gnu/aarch32/nt/gcc-arm-none-eabi/bin/../lib/gcc/arm-none-eabi/6.2.1/v7-a/fpv3/hard/crtbegin.o
                                         0x37 (size before relaxing)
 .comment       0x0000000000000036       0x37 ./src/echo_test.o
 .comment       0x0000000000000036       0x37 ./src/helper.o
 .comment       0x0000000000000036       0x37 ./src/platform_info.o
 .comment       0x0000000000000036       0x37 ./src/rsc_table.o
 .comment       0x0000000000000036       0x37 ../../slave_bsp/ps7_cortexa9_1/lib\libxil.a(xscugic.o)
 .comment       0x0000000000000036       0x37 ../../slave_bsp/ps7_cortexa9_1/lib\libxil.a(xscugic_intr.o)
 .comment       0x0000000000000036       0x37 ../../slave_bsp/ps7_cortexa9_1/lib\libxil.a(xscugic_sinit.o)
 .comment       0x0000000000000036       0x37 ../../slave_bsp/ps7_cortexa9_1/lib\libxil.a(vectors.o)
 .comment       0x0000000000000036       0x37 ../../slave_bsp/ps7_cortexa9_1/lib\libxil.a(xil_assert.o)
 .comment       0x0000000000000036       0x37 ../../slave_bsp/ps7_cortexa9_1/lib\libxil.a(xil_cache.o)
 .comment       0x0000000000000036       0x37 ../../slave_bsp/ps7_cortexa9_1/lib\libxil.a(xil_exception.o)
 .comment       0x0000000000000036       0x37 ../../slave_bsp/ps7_cortexa9_1/lib\libxil.a(xil_printf.o)
 .comment       0x0000000000000036       0x37 ../../slave_bsp/ps7_cortexa9_1/lib\libxil.a(xscugic_g.o)
 .comment       0x0000000000000036       0x37 ../../slave_bsp/ps7_cortexa9_1/lib\libxil.a(outbyte.o)
 .comment       0x0000000000000036       0x37 ../../slave_bsp/ps7_cortexa9_1/lib\libxil.a(xuartps_hw.o)
 .comment       0x0000000000000036       0x37 c:/xilinx/sdk/2017.2/gnu/aarch32/nt/gcc-arm-none-eabi/bin/../arm-none-eabi/libc/usr/lib/v7-a/fpv3/hard\libc.a(lib_a-ctype_.o)
 .comment       0x0000000000000036       0x37 c:/xilinx/sdk/2017.2/gnu/aarch32/nt/gcc-arm-none-eabi/bin/../arm-none-eabi/libc/usr/lib/v7-a/fpv3/hard\libc.a(lib_a-exit.o)
 .comment       0x0000000000000036       0x37 c:/xilinx/sdk/2017.2/gnu/aarch32/nt/gcc-arm-none-eabi/bin/../arm-none-eabi/libc/usr/lib/v7-a/fpv3/hard\libc.a(lib_a-fini.o)
 .comment       0x0000000000000036       0x37 c:/xilinx/sdk/2017.2/gnu/aarch32/nt/gcc-arm-none-eabi/bin/../arm-none-eabi/libc/usr/lib/v7-a/fpv3/hard\libc.a(lib_a-impure.o)
 .comment       0x0000000000000036       0x37 c:/xilinx/sdk/2017.2/gnu/aarch32/nt/gcc-arm-none-eabi/bin/../arm-none-eabi/libc/usr/lib/v7-a/fpv3/hard\libc.a(lib_a-init.o)
 .comment       0x0000000000000036       0x37 c:/xilinx/sdk/2017.2/gnu/aarch32/nt/gcc-arm-none-eabi/bin/../arm-none-eabi/libc/usr/lib/v7-a/fpv3/hard\libc.a(lib_a-__call_atexit.o)
 .comment       0x0000000000000036       0x37 ../../slave_bsp/ps7_cortexa9_1/lib\libxil.a(_exit.o)
 .comment       0x0000000000000036       0x37 ../../slave_bsp/ps7_cortexa9_1/lib\libmetal.a(init.c.obj)
 .comment       0x0000000000000036       0x37 ../../slave_bsp/ps7_cortexa9_1/lib\libmetal.a(log.c.obj)
 .comment       0x0000000000000036       0x37 ../../slave_bsp/ps7_cortexa9_1/lib\libmetal.a(init.c.obj)
 .comment       0x0000000000000036       0x37 ../../slave_bsp/ps7_cortexa9_1/lib\libmetal.a(irq.c.obj)
 .comment       0x0000000000000036       0x37 ../../slave_bsp/ps7_cortexa9_1/lib\libmetal.a(sys.c.obj)
 .comment       0x0000000000000036       0x37 ../../slave_bsp/ps7_cortexa9_1/lib\libopen_amp.a(hil.c.obj)
 .comment       0x0000000000000036       0x37 ../../slave_bsp/ps7_cortexa9_1/lib\libopen_amp.a(firmware.c.obj)
 .comment       0x0000000000000036       0x37 ../../slave_bsp/ps7_cortexa9_1/lib\libopen_amp.a(virtqueue.c.obj)
 .comment       0x0000000000000036       0x37 ../../slave_bsp/ps7_cortexa9_1/lib\libopen_amp.a(rpmsg.c.obj)
 .comment       0x0000000000000036       0x37 ../../slave_bsp/ps7_cortexa9_1/lib\libopen_amp.a(rpmsg_core.c.obj)
 .comment       0x0000000000000036       0x37 ../../slave_bsp/ps7_cortexa9_1/lib\libopen_amp.a(remoteproc.c.obj)
 .comment       0x0000000000000036       0x37 ../../slave_bsp/ps7_cortexa9_1/lib\libopen_amp.a(remoteproc_loader.c.obj)
 .comment       0x0000000000000036       0x37 ../../slave_bsp/ps7_cortexa9_1/lib\libopen_amp.a(rsc_table_parser.c.obj)
 .comment       0x0000000000000036       0x37 ../../slave_bsp/ps7_cortexa9_1/lib\libopen_amp.a(zynq_remoteproc_a9.c.obj)
 .comment       0x0000000000000036       0x37 ../../slave_bsp/ps7_cortexa9_1/lib\libopen_amp.a(sh_mem.c.obj)
 .comment       0x0000000000000036       0x37 ../../slave_bsp/ps7_cortexa9_1/lib\libopen_amp.a(remote_device.c.obj)
 .comment       0x0000000000000036       0x37 ../../slave_bsp/ps7_cortexa9_1/lib\libopen_amp.a(elf_loader.c.obj)
 .comment       0x0000000000000036       0x37 c:/xilinx/sdk/2017.2/gnu/aarch32/nt/gcc-arm-none-eabi/bin/../arm-none-eabi/libc/usr/lib/v7-a/fpv3/hard\libc.a(lib_a-assert.o)
 .comment       0x0000000000000036       0x37 c:/xilinx/sdk/2017.2/gnu/aarch32/nt/gcc-arm-none-eabi/bin/../arm-none-eabi/libc/usr/lib/v7-a/fpv3/hard\libc.a(lib_a-fiprintf.o)
 .comment       0x0000000000000036       0x37 c:/xilinx/sdk/2017.2/gnu/aarch32/nt/gcc-arm-none-eabi/bin/../arm-none-eabi/libc/usr/lib/v7-a/fpv3/hard\libc.a(lib_a-malloc.o)
 .comment       0x0000000000000036       0x37 c:/xilinx/sdk/2017.2/gnu/aarch32/nt/gcc-arm-none-eabi/bin/../arm-none-eabi/libc/usr/lib/v7-a/fpv3/hard\libc.a(lib_a-mallocr.o)
 .comment       0x0000000000000036       0x37 c:/xilinx/sdk/2017.2/gnu/aarch32/nt/gcc-arm-none-eabi/bin/../arm-none-eabi/libc/usr/lib/v7-a/fpv3/hard\libc.a(lib_a-memset.o)
 .comment       0x0000000000000036       0x37 c:/xilinx/sdk/2017.2/gnu/aarch32/nt/gcc-arm-none-eabi/bin/../arm-none-eabi/libc/usr/lib/v7-a/fpv3/hard\libc.a(lib_a-mlock.o)
 .comment       0x0000000000000036       0x37 c:/xilinx/sdk/2017.2/gnu/aarch32/nt/gcc-arm-none-eabi/bin/../arm-none-eabi/libc/usr/lib/v7-a/fpv3/hard\libc.a(lib_a-printf.o)
 .comment       0x0000000000000036       0x37 c:/xilinx/sdk/2017.2/gnu/aarch32/nt/gcc-arm-none-eabi/bin/../arm-none-eabi/libc/usr/lib/v7-a/fpv3/hard\libc.a(lib_a-sbrkr.o)
 .comment       0x0000000000000036       0x37 c:/xilinx/sdk/2017.2/gnu/aarch32/nt/gcc-arm-none-eabi/bin/../arm-none-eabi/libc/usr/lib/v7-a/fpv3/hard\libc.a(lib_a-strcpy.o)
 .comment       0x0000000000000036       0x37 c:/xilinx/sdk/2017.2/gnu/aarch32/nt/gcc-arm-none-eabi/bin/../arm-none-eabi/libc/usr/lib/v7-a/fpv3/hard\libc.a(lib_a-strncmp.o)
 .comment       0x0000000000000036       0x37 c:/xilinx/sdk/2017.2/gnu/aarch32/nt/gcc-arm-none-eabi/bin/../arm-none-eabi/libc/usr/lib/v7-a/fpv3/hard\libc.a(lib_a-strncpy.o)
 .comment       0x0000000000000036       0x37 c:/xilinx/sdk/2017.2/gnu/aarch32/nt/gcc-arm-none-eabi/bin/../arm-none-eabi/libc/usr/lib/v7-a/fpv3/hard\libc.a(lib_a-vfiprintf.o)
 .comment       0x0000000000000036       0x37 c:/xilinx/sdk/2017.2/gnu/aarch32/nt/gcc-arm-none-eabi/bin/../arm-none-eabi/libc/usr/lib/v7-a/fpv3/hard\libc.a(lib_a-vfprintf.o)
 .comment       0x0000000000000036       0x37 c:/xilinx/sdk/2017.2/gnu/aarch32/nt/gcc-arm-none-eabi/bin/../arm-none-eabi/libc/usr/lib/v7-a/fpv3/hard\libc.a(lib_a-wcrtomb.o)
 .comment       0x0000000000000036       0x37 c:/xilinx/sdk/2017.2/gnu/aarch32/nt/gcc-arm-none-eabi/bin/../arm-none-eabi/libc/usr/lib/v7-a/fpv3/hard\libc.a(lib_a-wcsrtombs.o)
 .comment       0x0000000000000036       0x37 c:/xilinx/sdk/2017.2/gnu/aarch32/nt/gcc-arm-none-eabi/bin/../arm-none-eabi/libc/usr/lib/v7-a/fpv3/hard\libc.a(lib_a-wctomb_r.o)
 .comment       0x0000000000000036       0x37 c:/xilinx/sdk/2017.2/gnu/aarch32/nt/gcc-arm-none-eabi/bin/../arm-none-eabi/libc/usr/lib/v7-a/fpv3/hard\libc.a(lib_a-wsetup.o)
 .comment       0x0000000000000036       0x37 c:/xilinx/sdk/2017.2/gnu/aarch32/nt/gcc-arm-none-eabi/bin/../arm-none-eabi/libc/usr/lib/v7-a/fpv3/hard\libc.a(lib_a-abort.o)
 .comment       0x0000000000000036       0x37 c:/xilinx/sdk/2017.2/gnu/aarch32/nt/gcc-arm-none-eabi/bin/../arm-none-eabi/libc/usr/lib/v7-a/fpv3/hard\libc.a(lib_a-dtoa.o)
 .comment       0x0000000000000036       0x37 c:/xilinx/sdk/2017.2/gnu/aarch32/nt/gcc-arm-none-eabi/bin/../arm-none-eabi/libc/usr/lib/v7-a/fpv3/hard\libc.a(lib_a-fflush.o)
 .comment       0x0000000000000036       0x37 c:/xilinx/sdk/2017.2/gnu/aarch32/nt/gcc-arm-none-eabi/bin/../arm-none-eabi/libc/usr/lib/v7-a/fpv3/hard\libc.a(lib_a-findfp.o)
 .comment       0x0000000000000036       0x37 c:/xilinx/sdk/2017.2/gnu/aarch32/nt/gcc-arm-none-eabi/bin/../arm-none-eabi/libc/usr/lib/v7-a/fpv3/hard\libc.a(lib_a-fputwc.o)
 .comment       0x0000000000000036       0x37 c:/xilinx/sdk/2017.2/gnu/aarch32/nt/gcc-arm-none-eabi/bin/../arm-none-eabi/libc/usr/lib/v7-a/fpv3/hard\libc.a(lib_a-freer.o)
 .comment       0x0000000000000036       0x37 c:/xilinx/sdk/2017.2/gnu/aarch32/nt/gcc-arm-none-eabi/bin/../arm-none-eabi/libc/usr/lib/v7-a/fpv3/hard\libc.a(lib_a-fvwrite.o)
 .comment       0x0000000000000036       0x37 c:/xilinx/sdk/2017.2/gnu/aarch32/nt/gcc-arm-none-eabi/bin/../arm-none-eabi/libc/usr/lib/v7-a/fpv3/hard\libc.a(lib_a-fwalk.o)
 .comment       0x0000000000000036       0x37 c:/xilinx/sdk/2017.2/gnu/aarch32/nt/gcc-arm-none-eabi/bin/../arm-none-eabi/libc/usr/lib/v7-a/fpv3/hard\libc.a(lib_a-locale.o)
 .comment       0x0000000000000036       0x37 c:/xilinx/sdk/2017.2/gnu/aarch32/nt/gcc-arm-none-eabi/bin/../arm-none-eabi/libc/usr/lib/v7-a/fpv3/hard\libc.a(lib_a-makebuf.o)
 .comment       0x0000000000000036       0x37 c:/xilinx/sdk/2017.2/gnu/aarch32/nt/gcc-arm-none-eabi/bin/../arm-none-eabi/libc/usr/lib/v7-a/fpv3/hard\libc.a(lib_a-mbtowc_r.o)
 .comment       0x0000000000000036       0x37 c:/xilinx/sdk/2017.2/gnu/aarch32/nt/gcc-arm-none-eabi/bin/../arm-none-eabi/libc/usr/lib/v7-a/fpv3/hard\libc.a(lib_a-memmove.o)
 .comment       0x0000000000000036       0x37 c:/xilinx/sdk/2017.2/gnu/aarch32/nt/gcc-arm-none-eabi/bin/../arm-none-eabi/libc/usr/lib/v7-a/fpv3/hard\libc.a(lib_a-mprec.o)
 .comment       0x0000000000000036       0x37 c:/xilinx/sdk/2017.2/gnu/aarch32/nt/gcc-arm-none-eabi/bin/../arm-none-eabi/libc/usr/lib/v7-a/fpv3/hard\libc.a(lib_a-reallocr.o)
 .comment       0x0000000000000036       0x37 c:/xilinx/sdk/2017.2/gnu/aarch32/nt/gcc-arm-none-eabi/bin/../arm-none-eabi/libc/usr/lib/v7-a/fpv3/hard\libc.a(lib_a-reent.o)
 .comment       0x0000000000000036       0x37 c:/xilinx/sdk/2017.2/gnu/aarch32/nt/gcc-arm-none-eabi/bin/../arm-none-eabi/libc/usr/lib/v7-a/fpv3/hard\libc.a(lib_a-s_frexp.o)
 .comment       0x0000000000000036       0x37 c:/xilinx/sdk/2017.2/gnu/aarch32/nt/gcc-arm-none-eabi/bin/../arm-none-eabi/libc/usr/lib/v7-a/fpv3/hard\libc.a(lib_a-signal.o)
 .comment       0x0000000000000036       0x37 c:/xilinx/sdk/2017.2/gnu/aarch32/nt/gcc-arm-none-eabi/bin/../arm-none-eabi/libc/usr/lib/v7-a/fpv3/hard\libc.a(lib_a-signalr.o)
 .comment       0x0000000000000036       0x37 c:/xilinx/sdk/2017.2/gnu/aarch32/nt/gcc-arm-none-eabi/bin/../arm-none-eabi/libc/usr/lib/v7-a/fpv3/hard\libc.a(lib_a-stdio.o)
 .comment       0x0000000000000036       0x37 c:/xilinx/sdk/2017.2/gnu/aarch32/nt/gcc-arm-none-eabi/bin/../arm-none-eabi/libc/usr/lib/v7-a/fpv3/hard\libc.a(lib_a-strcasecmp.o)
 .comment       0x0000000000000036       0x37 c:/xilinx/sdk/2017.2/gnu/aarch32/nt/gcc-arm-none-eabi/bin/../arm-none-eabi/libc/usr/lib/v7-a/fpv3/hard\libc.a(lib_a-strcat.o)
 .comment       0x0000000000000036       0x37 c:/xilinx/sdk/2017.2/gnu/aarch32/nt/gcc-arm-none-eabi/bin/../arm-none-eabi/libc/usr/lib/v7-a/fpv3/hard\libc.a(lib_a-strchr.o)
 .comment       0x0000000000000036       0x37 c:/xilinx/sdk/2017.2/gnu/aarch32/nt/gcc-arm-none-eabi/bin/../arm-none-eabi/libc/usr/lib/v7-a/fpv3/hard\libc.a(lib_a-strlcpy.o)
 .comment       0x0000000000000036       0x37 c:/xilinx/sdk/2017.2/gnu/aarch32/nt/gcc-arm-none-eabi/bin/../arm-none-eabi/libc/usr/lib/v7-a/fpv3/hard\libc.a(lib_a-strncasecmp.o)
 .comment       0x0000000000000036       0x37 c:/xilinx/sdk/2017.2/gnu/aarch32/nt/gcc-arm-none-eabi/bin/../arm-none-eabi/libc/usr/lib/v7-a/fpv3/hard\libc.a(lib_a-strtol.o)
 .comment       0x0000000000000036       0x37 c:/xilinx/sdk/2017.2/gnu/aarch32/nt/gcc-arm-none-eabi/bin/../arm-none-eabi/libc/usr/lib/v7-a/fpv3/hard\libc.a(lib_a-wbuf.o)
 .comment       0x0000000000000036       0x37 c:/xilinx/sdk/2017.2/gnu/aarch32/nt/gcc-arm-none-eabi/bin/../arm-none-eabi/libc/usr/lib/v7-a/fpv3/hard\libc.a(lib_a-wcsnrtombs.o)
 .comment       0x0000000000000036       0x37 c:/xilinx/sdk/2017.2/gnu/aarch32/nt/gcc-arm-none-eabi/bin/../arm-none-eabi/libc/usr/lib/v7-a/fpv3/hard\libc.a(lib_a-writer.o)
 .comment       0x0000000000000036       0x37 c:/xilinx/sdk/2017.2/gnu/aarch32/nt/gcc-arm-none-eabi/bin/../arm-none-eabi/libc/usr/lib/v7-a/fpv3/hard\libc.a(lib_a-callocr.o)
 .comment       0x0000000000000036       0x37 c:/xilinx/sdk/2017.2/gnu/aarch32/nt/gcc-arm-none-eabi/bin/../arm-none-eabi/libc/usr/lib/v7-a/fpv3/hard\libc.a(lib_a-closer.o)
 .comment       0x0000000000000036       0x37 c:/xilinx/sdk/2017.2/gnu/aarch32/nt/gcc-arm-none-eabi/bin/../arm-none-eabi/libc/usr/lib/v7-a/fpv3/hard\libc.a(lib_a-fclose.o)
 .comment       0x0000000000000036       0x37 c:/xilinx/sdk/2017.2/gnu/aarch32/nt/gcc-arm-none-eabi/bin/../arm-none-eabi/libc/usr/lib/v7-a/fpv3/hard\libc.a(lib_a-fstatr.o)
 .comment       0x0000000000000036       0x37 c:/xilinx/sdk/2017.2/gnu/aarch32/nt/gcc-arm-none-eabi/bin/../arm-none-eabi/libc/usr/lib/v7-a/fpv3/hard\libc.a(lib_a-getenv_r.o)
 .comment       0x0000000000000036       0x37 c:/xilinx/sdk/2017.2/gnu/aarch32/nt/gcc-arm-none-eabi/bin/../arm-none-eabi/libc/usr/lib/v7-a/fpv3/hard\libc.a(lib_a-isattyr.o)
 .comment       0x0000000000000036       0x37 c:/xilinx/sdk/2017.2/gnu/aarch32/nt/gcc-arm-none-eabi/bin/../arm-none-eabi/libc/usr/lib/v7-a/fpv3/hard\libc.a(lib_a-lseekr.o)
 .comment       0x0000000000000036       0x37 c:/xilinx/sdk/2017.2/gnu/aarch32/nt/gcc-arm-none-eabi/bin/../arm-none-eabi/libc/usr/lib/v7-a/fpv3/hard\libc.a(lib_a-readr.o)
 .comment       0x0000000000000036       0x37 c:/xilinx/sdk/2017.2/gnu/aarch32/nt/gcc-arm-none-eabi/bin/../arm-none-eabi/libc/usr/lib/v7-a/fpv3/hard\libc.a(lib_a-environ.o)
 .comment       0x0000000000000036       0x37 c:/xilinx/sdk/2017.2/gnu/aarch32/nt/gcc-arm-none-eabi/bin/../arm-none-eabi/libc/usr/lib/v7-a/fpv3/hard\libc.a(lib_a-envlock.o)
 .comment       0x0000000000000036       0x37 ../../slave_bsp/ps7_cortexa9_1/lib\libxil.a(_sbrk.o)
 .comment       0x0000000000000036       0x37 ../../slave_bsp/ps7_cortexa9_1/lib\libxil.a(fstat.o)
 .comment       0x0000000000000036       0x37 ../../slave_bsp/ps7_cortexa9_1/lib\libxil.a(getpid.o)
 .comment       0x0000000000000036       0x37 ../../slave_bsp/ps7_cortexa9_1/lib\libxil.a(isatty.o)
 .comment       0x0000000000000036       0x37 ../../slave_bsp/ps7_cortexa9_1/lib\libxil.a(kill.o)
 .comment       0x0000000000000036       0x37 ../../slave_bsp/ps7_cortexa9_1/lib\libxil.a(lseek.o)
 .comment       0x0000000000000036       0x37 ../../slave_bsp/ps7_cortexa9_1/lib\libxil.a(xil_mmu.o)
 .comment       0x0000000000000036       0x37 ../../slave_bsp/ps7_cortexa9_1/lib\libxil.a(errno.o)
 .comment       0x0000000000000036       0x37 ../../slave_bsp/ps7_cortexa9_1/lib\libmetal.a(device.c.obj)
 .comment       0x0000000000000036       0x37 ../../slave_bsp/ps7_cortexa9_1/lib\libmetal.a(io.c.obj)
 .comment       0x0000000000000036       0x37 ../../slave_bsp/ps7_cortexa9_1/lib\libmetal.a(shmem.c.obj)
 .comment       0x0000000000000036       0x37 ../../slave_bsp/ps7_cortexa9_1/lib\libmetal.a(cache.c.obj)
 .comment       0x0000000000000036       0x37 ../../slave_bsp/ps7_cortexa9_1/lib\libmetal.a(io.c.obj)
 .comment       0x0000000000000036       0x37 ../../slave_bsp/ps7_cortexa9_1/lib\libmetal.a(sleep.c.obj)
 .comment       0x0000000000000036       0x37 ../../slave_bsp/ps7_cortexa9_1/lib\libmetal.a(shmem.c.obj)
 .comment       0x0000000000000036       0x37 ../../slave_bsp/ps7_cortexa9_1/lib\libopen_amp.a(rpmsg_retarget.c.obj)
 .comment       0x0000000000000036       0x37 c:/xilinx/sdk/2017.2/gnu/aarch32/nt/gcc-arm-none-eabi/bin/../lib/gcc/arm-none-eabi/6.2.1/v7-a/fpv3/hard\libgcc.a(_udivmoddi4.o)
 .comment       0x0000000000000036       0x37 c:/xilinx/sdk/2017.2/gnu/aarch32/nt/gcc-arm-none-eabi/bin/../lib/gcc/arm-none-eabi/6.2.1/v7-a/fpv3/hard/crtend.o

.debug_info     0x0000000000000000    0x2ad35
 .debug_info    0x0000000000000000     0x1b5e ./src/echo_test.o
 .debug_info    0x0000000000001b5e      0xfc3 ./src/helper.o
 .debug_info    0x0000000000002b21     0x16d8 ./src/platform_info.o
 .debug_info    0x00000000000041f9     0x105b ./src/rsc_table.o
 .debug_info    0x0000000000005254      0xf7f ../../slave_bsp/ps7_cortexa9_1/lib\libxil.a(xscugic.o)
 .debug_info    0x00000000000061d3      0xaf5 ../../slave_bsp/ps7_cortexa9_1/lib\libxil.a(xscugic_intr.o)
 .debug_info    0x0000000000006cc8      0xa23 ../../slave_bsp/ps7_cortexa9_1/lib\libxil.a(xscugic_sinit.o)
 .debug_info    0x00000000000076eb       0x9d ../../slave_bsp/ps7_cortexa9_1/lib\libxil.a(asm_vectors.o)
 .debug_info    0x0000000000007788       0x96 ../../slave_bsp/ps7_cortexa9_1/lib\libxil.a(boot.o)
 .debug_info    0x000000000000781e      0x198 ../../slave_bsp/ps7_cortexa9_1/lib\libxil.a(vectors.o)
 .debug_info    0x00000000000079b6       0x9a ../../slave_bsp/ps7_cortexa9_1/lib\libxil.a(xil-crt0.o)
 .debug_info    0x0000000000007a50      0x1ac ../../slave_bsp/ps7_cortexa9_1/lib\libxil.a(xil_assert.o)
 .debug_info    0x0000000000007bfc     0x1292 ../../slave_bsp/ps7_cortexa9_1/lib\libxil.a(xil_cache.o)
 .debug_info    0x0000000000008e8e      0x289 ../../slave_bsp/ps7_cortexa9_1/lib\libxil.a(xil_exception.o)
 .debug_info    0x0000000000009117      0xbfd ../../slave_bsp/ps7_cortexa9_1/lib\libxil.a(xil_printf.o)
 .debug_info    0x0000000000009d14      0x9db ../../slave_bsp/ps7_cortexa9_1/lib\libxil.a(xscugic_g.o)
 .debug_info    0x000000000000a6ef       0x9a ../../slave_bsp/ps7_cortexa9_1/lib\libxil.a(cpu_init.o)
 .debug_info    0x000000000000a789      0x922 ../../slave_bsp/ps7_cortexa9_1/lib\libxil.a(outbyte.o)
 .debug_info    0x000000000000b0ab      0xa40 ../../slave_bsp/ps7_cortexa9_1/lib\libxil.a(xuartps_hw.o)
 .debug_info    0x000000000000baeb       0xfa ../../slave_bsp/ps7_cortexa9_1/lib\libxil.a(_exit.o)
 .debug_info    0x000000000000bbe5      0xafd ../../slave_bsp/ps7_cortexa9_1/lib\libmetal.a(init.c.obj)
 .debug_info    0x000000000000c6e2      0xb07 ../../slave_bsp/ps7_cortexa9_1/lib\libmetal.a(log.c.obj)
 .debug_info    0x000000000000d1e9      0xadc ../../slave_bsp/ps7_cortexa9_1/lib\libmetal.a(init.c.obj)
 .debug_info    0x000000000000dcc5      0xe4a ../../slave_bsp/ps7_cortexa9_1/lib\libmetal.a(irq.c.obj)
 .debug_info    0x000000000000eb0f      0xc0a ../../slave_bsp/ps7_cortexa9_1/lib\libmetal.a(sys.c.obj)
 .debug_info    0x000000000000f719     0x21e8 ../../slave_bsp/ps7_cortexa9_1/lib\libopen_amp.a(hil.c.obj)
 .debug_info    0x0000000000011901      0x95c ../../slave_bsp/ps7_cortexa9_1/lib\libopen_amp.a(firmware.c.obj)
 .debug_info    0x000000000001225d     0x1940 ../../slave_bsp/ps7_cortexa9_1/lib\libopen_amp.a(virtqueue.c.obj)
 .debug_info    0x0000000000013b9d     0x1e50 ../../slave_bsp/ps7_cortexa9_1/lib\libopen_amp.a(rpmsg.c.obj)
 .debug_info    0x00000000000159ed     0x2249 ../../slave_bsp/ps7_cortexa9_1/lib\libopen_amp.a(rpmsg_core.c.obj)
 .debug_info    0x0000000000017c36     0x1cf7 ../../slave_bsp/ps7_cortexa9_1/lib\libopen_amp.a(remoteproc.c.obj)
 .debug_info    0x000000000001992d     0x108f ../../slave_bsp/ps7_cortexa9_1/lib\libopen_amp.a(remoteproc_loader.c.obj)
 .debug_info    0x000000000001a9bc     0x1e35 ../../slave_bsp/ps7_cortexa9_1/lib\libopen_amp.a(rsc_table_parser.c.obj)
 .debug_info    0x000000000001c7f1     0x1aa2 ../../slave_bsp/ps7_cortexa9_1/lib\libopen_amp.a(zynq_remoteproc_a9.c.obj)
 .debug_info    0x000000000001e293      0xbca ../../slave_bsp/ps7_cortexa9_1/lib\libopen_amp.a(sh_mem.c.obj)
 .debug_info    0x000000000001ee5d     0x21a1 ../../slave_bsp/ps7_cortexa9_1/lib\libopen_amp.a(remote_device.c.obj)
 .debug_info    0x0000000000020ffe     0x1795 ../../slave_bsp/ps7_cortexa9_1/lib\libopen_amp.a(elf_loader.c.obj)
 .debug_info    0x0000000000022793      0x160 ../../slave_bsp/ps7_cortexa9_1/lib\libxil.a(_sbrk.o)
 .debug_info    0x00000000000228f3      0xa75 ../../slave_bsp/ps7_cortexa9_1/lib\libxil.a(fstat.o)
 .debug_info    0x0000000000023368       0xc5 ../../slave_bsp/ps7_cortexa9_1/lib\libxil.a(getpid.o)
 .debug_info    0x000000000002342d      0x124 ../../slave_bsp/ps7_cortexa9_1/lib\libxil.a(isatty.o)
 .debug_info    0x0000000000023551      0x142 ../../slave_bsp/ps7_cortexa9_1/lib\libxil.a(kill.o)
 .debug_info    0x0000000000023693      0x95f ../../slave_bsp/ps7_cortexa9_1/lib\libxil.a(lseek.o)
 .debug_info    0x0000000000023ff2      0x193 ../../slave_bsp/ps7_cortexa9_1/lib\libxil.a(xil_mmu.o)
 .debug_info    0x0000000000024185      0x8d7 ../../slave_bsp/ps7_cortexa9_1/lib\libxil.a(errno.o)
 .debug_info    0x0000000000024a5c     0x11cc ../../slave_bsp/ps7_cortexa9_1/lib\libmetal.a(device.c.obj)
 .debug_info    0x0000000000025c28      0xbd3 ../../slave_bsp/ps7_cortexa9_1/lib\libmetal.a(io.c.obj)
 .debug_info    0x00000000000267fb      0xc1b ../../slave_bsp/ps7_cortexa9_1/lib\libmetal.a(shmem.c.obj)
 .debug_info    0x0000000000027416       0x8b ../../slave_bsp/ps7_cortexa9_1/lib\libmetal.a(cache.c.obj)
 .debug_info    0x00000000000274a1      0xd24 ../../slave_bsp/ps7_cortexa9_1/lib\libmetal.a(io.c.obj)
 .debug_info    0x00000000000281c5       0x58 ../../slave_bsp/ps7_cortexa9_1/lib\libmetal.a(sleep.c.obj)
 .debug_info    0x000000000002821d      0xd57 ../../slave_bsp/ps7_cortexa9_1/lib\libmetal.a(shmem.c.obj)
 .debug_info    0x0000000000028f74     0x1dc1 ../../slave_bsp/ps7_cortexa9_1/lib\libopen_amp.a(rpmsg_retarget.c.obj)

.debug_abbrev   0x0000000000000000     0x6356
 .debug_abbrev  0x0000000000000000      0x26e ./src/echo_test.o
 .debug_abbrev  0x000000000000026e      0x243 ./src/helper.o
 .debug_abbrev  0x00000000000004b1      0x219 ./src/platform_info.o
 .debug_abbrev  0x00000000000006ca      0x22a ./src/rsc_table.o
 .debug_abbrev  0x00000000000008f4      0x2a5 ../../slave_bsp/ps7_cortexa9_1/lib\libxil.a(xscugic.o)
 .debug_abbrev  0x0000000000000b99      0x221 ../../slave_bsp/ps7_cortexa9_1/lib\libxil.a(xscugic_intr.o)
 .debug_abbrev  0x0000000000000dba      0x1dd ../../slave_bsp/ps7_cortexa9_1/lib\libxil.a(xscugic_sinit.o)
 .debug_abbrev  0x0000000000000f97       0x14 ../../slave_bsp/ps7_cortexa9_1/lib\libxil.a(asm_vectors.o)
 .debug_abbrev  0x0000000000000fab       0x14 ../../slave_bsp/ps7_cortexa9_1/lib\libxil.a(boot.o)
 .debug_abbrev  0x0000000000000fbf       0xb7 ../../slave_bsp/ps7_cortexa9_1/lib\libxil.a(vectors.o)
 .debug_abbrev  0x0000000000001076       0x14 ../../slave_bsp/ps7_cortexa9_1/lib\libxil.a(xil-crt0.o)
 .debug_abbrev  0x000000000000108a       0xd9 ../../slave_bsp/ps7_cortexa9_1/lib\libxil.a(xil_assert.o)
 .debug_abbrev  0x0000000000001163      0x294 ../../slave_bsp/ps7_cortexa9_1/lib\libxil.a(xil_cache.o)
 .debug_abbrev  0x00000000000013f7      0x15b ../../slave_bsp/ps7_cortexa9_1/lib\libxil.a(xil_exception.o)
 .debug_abbrev  0x0000000000001552      0x257 ../../slave_bsp/ps7_cortexa9_1/lib\libxil.a(xil_printf.o)
 .debug_abbrev  0x00000000000017a9      0x1b2 ../../slave_bsp/ps7_cortexa9_1/lib\libxil.a(xscugic_g.o)
 .debug_abbrev  0x000000000000195b       0x14 ../../slave_bsp/ps7_cortexa9_1/lib\libxil.a(cpu_init.o)
 .debug_abbrev  0x000000000000196f      0x1bf ../../slave_bsp/ps7_cortexa9_1/lib\libxil.a(outbyte.o)
 .debug_abbrev  0x0000000000001b2e      0x223 ../../slave_bsp/ps7_cortexa9_1/lib\libxil.a(xuartps_hw.o)
 .debug_abbrev  0x0000000000001d51       0x7b ../../slave_bsp/ps7_cortexa9_1/lib\libxil.a(_exit.o)
 .debug_abbrev  0x0000000000001dcc      0x21f ../../slave_bsp/ps7_cortexa9_1/lib\libmetal.a(init.c.obj)
 .debug_abbrev  0x0000000000001feb      0x212 ../../slave_bsp/ps7_cortexa9_1/lib\libmetal.a(log.c.obj)
 .debug_abbrev  0x00000000000021fd      0x207 ../../slave_bsp/ps7_cortexa9_1/lib\libmetal.a(init.c.obj)
 .debug_abbrev  0x0000000000002404      0x2b1 ../../slave_bsp/ps7_cortexa9_1/lib\libmetal.a(irq.c.obj)
 .debug_abbrev  0x00000000000026b5      0x25c ../../slave_bsp/ps7_cortexa9_1/lib\libmetal.a(sys.c.obj)
 .debug_abbrev  0x0000000000002911      0x38e ../../slave_bsp/ps7_cortexa9_1/lib\libopen_amp.a(hil.c.obj)
 .debug_abbrev  0x0000000000002c9f      0x1c5 ../../slave_bsp/ps7_cortexa9_1/lib\libopen_amp.a(firmware.c.obj)
 .debug_abbrev  0x0000000000002e64      0x3b6 ../../slave_bsp/ps7_cortexa9_1/lib\libopen_amp.a(virtqueue.c.obj)
 .debug_abbrev  0x000000000000321a      0x2f9 ../../slave_bsp/ps7_cortexa9_1/lib\libopen_amp.a(rpmsg.c.obj)
 .debug_abbrev  0x0000000000003513      0x34e ../../slave_bsp/ps7_cortexa9_1/lib\libopen_amp.a(rpmsg_core.c.obj)
 .debug_abbrev  0x0000000000003861      0x280 ../../slave_bsp/ps7_cortexa9_1/lib\libopen_amp.a(remoteproc.c.obj)
 .debug_abbrev  0x0000000000003ae1      0x23f ../../slave_bsp/ps7_cortexa9_1/lib\libopen_amp.a(remoteproc_loader.c.obj)
 .debug_abbrev  0x0000000000003d20      0x2f9 ../../slave_bsp/ps7_cortexa9_1/lib\libopen_amp.a(rsc_table_parser.c.obj)
 .debug_abbrev  0x0000000000004019      0x30b ../../slave_bsp/ps7_cortexa9_1/lib\libopen_amp.a(zynq_remoteproc_a9.c.obj)
 .debug_abbrev  0x0000000000004324      0x267 ../../slave_bsp/ps7_cortexa9_1/lib\libopen_amp.a(sh_mem.c.obj)
 .debug_abbrev  0x000000000000458b      0x3a4 ../../slave_bsp/ps7_cortexa9_1/lib\libopen_amp.a(remote_device.c.obj)
 .debug_abbrev  0x000000000000492f      0x2c5 ../../slave_bsp/ps7_cortexa9_1/lib\libopen_amp.a(elf_loader.c.obj)
 .debug_abbrev  0x0000000000004bf4       0xa6 ../../slave_bsp/ps7_cortexa9_1/lib\libxil.a(_sbrk.o)
 .debug_abbrev  0x0000000000004c9a      0x1be ../../slave_bsp/ps7_cortexa9_1/lib\libxil.a(fstat.o)
 .debug_abbrev  0x0000000000004e58       0x5e ../../slave_bsp/ps7_cortexa9_1/lib\libxil.a(getpid.o)
 .debug_abbrev  0x0000000000004eb6       0x96 ../../slave_bsp/ps7_cortexa9_1/lib\libxil.a(isatty.o)
 .debug_abbrev  0x0000000000004f4c       0x96 ../../slave_bsp/ps7_cortexa9_1/lib\libxil.a(kill.o)
 .debug_abbrev  0x0000000000004fe2      0x1ec ../../slave_bsp/ps7_cortexa9_1/lib\libxil.a(lseek.o)
 .debug_abbrev  0x00000000000051ce       0xae ../../slave_bsp/ps7_cortexa9_1/lib\libxil.a(xil_mmu.o)
 .debug_abbrev  0x000000000000527c      0x1a5 ../../slave_bsp/ps7_cortexa9_1/lib\libxil.a(errno.o)
 .debug_abbrev  0x0000000000005421      0x2cc ../../slave_bsp/ps7_cortexa9_1/lib\libmetal.a(device.c.obj)
 .debug_abbrev  0x00000000000056ed      0x24a ../../slave_bsp/ps7_cortexa9_1/lib\libmetal.a(io.c.obj)
 .debug_abbrev  0x0000000000005937      0x200 ../../slave_bsp/ps7_cortexa9_1/lib\libmetal.a(shmem.c.obj)
 .debug_abbrev  0x0000000000005b37       0x74 ../../slave_bsp/ps7_cortexa9_1/lib\libmetal.a(cache.c.obj)
 .debug_abbrev  0x0000000000005bab      0x25b ../../slave_bsp/ps7_cortexa9_1/lib\libmetal.a(io.c.obj)
 .debug_abbrev  0x0000000000005e06       0x53 ../../slave_bsp/ps7_cortexa9_1/lib\libmetal.a(sleep.c.obj)
 .debug_abbrev  0x0000000000005e59      0x264 ../../slave_bsp/ps7_cortexa9_1/lib\libmetal.a(shmem.c.obj)
 .debug_abbrev  0x00000000000060bd      0x299 ../../slave_bsp/ps7_cortexa9_1/lib\libopen_amp.a(rpmsg_retarget.c.obj)

.debug_aranges  0x0000000000000000      0x698
 .debug_aranges
                0x0000000000000000       0x20 ./src/echo_test.o
 .debug_aranges
                0x0000000000000020       0x20 ./src/helper.o
 .debug_aranges
                0x0000000000000040       0x20 ./src/platform_info.o
 .debug_aranges
                0x0000000000000060       0x20 ./src/rsc_table.o
 .debug_aranges
                0x0000000000000080       0x20 ../../slave_bsp/ps7_cortexa9_1/lib\libxil.a(xscugic.o)
 .debug_aranges
                0x00000000000000a0       0x20 ../../slave_bsp/ps7_cortexa9_1/lib\libxil.a(xscugic_intr.o)
 .debug_aranges
                0x00000000000000c0       0x20 ../../slave_bsp/ps7_cortexa9_1/lib\libxil.a(xscugic_sinit.o)
 .debug_aranges
                0x00000000000000e0       0x20 ../../slave_bsp/ps7_cortexa9_1/lib\libxil.a(asm_vectors.o)
 .debug_aranges
                0x0000000000000100       0x20 ../../slave_bsp/ps7_cortexa9_1/lib\libxil.a(boot.o)
 .debug_aranges
                0x0000000000000120       0x20 ../../slave_bsp/ps7_cortexa9_1/lib\libxil.a(vectors.o)
 .debug_aranges
                0x0000000000000140       0x20 ../../slave_bsp/ps7_cortexa9_1/lib\libxil.a(xil-crt0.o)
 .debug_aranges
                0x0000000000000160       0x20 ../../slave_bsp/ps7_cortexa9_1/lib\libxil.a(xil_assert.o)
 .debug_aranges
                0x0000000000000180       0x20 ../../slave_bsp/ps7_cortexa9_1/lib\libxil.a(xil_cache.o)
 .debug_aranges
                0x00000000000001a0       0x20 ../../slave_bsp/ps7_cortexa9_1/lib\libxil.a(xil_exception.o)
 .debug_aranges
                0x00000000000001c0       0x20 ../../slave_bsp/ps7_cortexa9_1/lib\libxil.a(xil_printf.o)
 .debug_aranges
                0x00000000000001e0       0x18 ../../slave_bsp/ps7_cortexa9_1/lib\libxil.a(xscugic_g.o)
 .debug_aranges
                0x00000000000001f8       0x20 ../../slave_bsp/ps7_cortexa9_1/lib\libxil.a(cpu_init.o)
 .debug_aranges
                0x0000000000000218       0x20 ../../slave_bsp/ps7_cortexa9_1/lib\libxil.a(outbyte.o)
 .debug_aranges
                0x0000000000000238       0x20 ../../slave_bsp/ps7_cortexa9_1/lib\libxil.a(xuartps_hw.o)
 .debug_aranges
                0x0000000000000258       0x20 ../../slave_bsp/ps7_cortexa9_1/lib\libxil.a(_exit.o)
 .debug_aranges
                0x0000000000000278       0x20 ../../slave_bsp/ps7_cortexa9_1/lib\libmetal.a(init.c.obj)
 .debug_aranges
                0x0000000000000298       0x20 ../../slave_bsp/ps7_cortexa9_1/lib\libmetal.a(log.c.obj)
 .debug_aranges
                0x00000000000002b8       0x20 ../../slave_bsp/ps7_cortexa9_1/lib\libmetal.a(init.c.obj)
 .debug_aranges
                0x00000000000002d8       0x20 ../../slave_bsp/ps7_cortexa9_1/lib\libmetal.a(irq.c.obj)
 .debug_aranges
                0x00000000000002f8       0x20 ../../slave_bsp/ps7_cortexa9_1/lib\libmetal.a(sys.c.obj)
 .debug_aranges
                0x0000000000000318       0x20 ../../slave_bsp/ps7_cortexa9_1/lib\libopen_amp.a(hil.c.obj)
 .debug_aranges
                0x0000000000000338       0x20 ../../slave_bsp/ps7_cortexa9_1/lib\libopen_amp.a(firmware.c.obj)
 .debug_aranges
                0x0000000000000358       0x20 ../../slave_bsp/ps7_cortexa9_1/lib\libopen_amp.a(virtqueue.c.obj)
 .debug_aranges
                0x0000000000000378       0x20 ../../slave_bsp/ps7_cortexa9_1/lib\libopen_amp.a(rpmsg.c.obj)
 .debug_aranges
                0x0000000000000398       0x20 ../../slave_bsp/ps7_cortexa9_1/lib\libopen_amp.a(rpmsg_core.c.obj)
 .debug_aranges
                0x00000000000003b8       0x20 ../../slave_bsp/ps7_cortexa9_1/lib\libopen_amp.a(remoteproc.c.obj)
 .debug_aranges
                0x00000000000003d8       0x20 ../../slave_bsp/ps7_cortexa9_1/lib\libopen_amp.a(remoteproc_loader.c.obj)
 .debug_aranges
                0x00000000000003f8       0x20 ../../slave_bsp/ps7_cortexa9_1/lib\libopen_amp.a(rsc_table_parser.c.obj)
 .debug_aranges
                0x0000000000000418       0x20 ../../slave_bsp/ps7_cortexa9_1/lib\libopen_amp.a(zynq_remoteproc_a9.c.obj)
 .debug_aranges
                0x0000000000000438       0x20 ../../slave_bsp/ps7_cortexa9_1/lib\libopen_amp.a(sh_mem.c.obj)
 .debug_aranges
                0x0000000000000458       0x20 ../../slave_bsp/ps7_cortexa9_1/lib\libopen_amp.a(remote_device.c.obj)
 .debug_aranges
                0x0000000000000478       0x20 ../../slave_bsp/ps7_cortexa9_1/lib\libopen_amp.a(elf_loader.c.obj)
 .debug_aranges
                0x0000000000000498       0x20 ../../slave_bsp/ps7_cortexa9_1/lib\libxil.a(_sbrk.o)
 .debug_aranges
                0x00000000000004b8       0x20 ../../slave_bsp/ps7_cortexa9_1/lib\libxil.a(fstat.o)
 .debug_aranges
                0x00000000000004d8       0x20 ../../slave_bsp/ps7_cortexa9_1/lib\libxil.a(getpid.o)
 .debug_aranges
                0x00000000000004f8       0x20 ../../slave_bsp/ps7_cortexa9_1/lib\libxil.a(isatty.o)
 .debug_aranges
                0x0000000000000518       0x20 ../../slave_bsp/ps7_cortexa9_1/lib\libxil.a(kill.o)
 .debug_aranges
                0x0000000000000538       0x20 ../../slave_bsp/ps7_cortexa9_1/lib\libxil.a(lseek.o)
 .debug_aranges
                0x0000000000000558       0x20 ../../slave_bsp/ps7_cortexa9_1/lib\libxil.a(xil_mmu.o)
 .debug_aranges
                0x0000000000000578       0x20 ../../slave_bsp/ps7_cortexa9_1/lib\libxil.a(errno.o)
 .debug_aranges
                0x0000000000000598       0x20 ../../slave_bsp/ps7_cortexa9_1/lib\libmetal.a(device.c.obj)
 .debug_aranges
                0x00000000000005b8       0x20 ../../slave_bsp/ps7_cortexa9_1/lib\libmetal.a(io.c.obj)
 .debug_aranges
                0x00000000000005d8       0x20 ../../slave_bsp/ps7_cortexa9_1/lib\libmetal.a(shmem.c.obj)
 .debug_aranges
                0x00000000000005f8       0x20 ../../slave_bsp/ps7_cortexa9_1/lib\libmetal.a(cache.c.obj)
 .debug_aranges
                0x0000000000000618       0x20 ../../slave_bsp/ps7_cortexa9_1/lib\libmetal.a(io.c.obj)
 .debug_aranges
                0x0000000000000638       0x20 ../../slave_bsp/ps7_cortexa9_1/lib\libmetal.a(sleep.c.obj)
 .debug_aranges
                0x0000000000000658       0x20 ../../slave_bsp/ps7_cortexa9_1/lib\libmetal.a(shmem.c.obj)
 .debug_aranges
                0x0000000000000678       0x20 ../../slave_bsp/ps7_cortexa9_1/lib\libopen_amp.a(rpmsg_retarget.c.obj)

.debug_macro    0x0000000000000000     0x568d
 .debug_macro   0x0000000000000000      0x472 ./src/echo_test.o
 .debug_macro   0x0000000000000472      0x8ce ./src/echo_test.o
 .debug_macro   0x0000000000000d40       0x22 ./src/echo_test.o
 .debug_macro   0x0000000000000d62       0x52 ./src/echo_test.o
 .debug_macro   0x0000000000000db4       0x8d ./src/echo_test.o
 .debug_macro   0x0000000000000e41       0x35 ./src/echo_test.o
 .debug_macro   0x0000000000000e76       0x9c ./src/echo_test.o
 .debug_macro   0x0000000000000f12       0x4a ./src/echo_test.o
 .debug_macro   0x0000000000000f5c      0x174 ./src/echo_test.o
 .debug_macro   0x00000000000010d0      0x30d ./src/echo_test.o
 .debug_macro   0x00000000000013dd       0xa6 ./src/echo_test.o
 .debug_macro   0x0000000000001483       0x52 ./src/echo_test.o
 .debug_macro   0x00000000000014d5       0x16 ./src/echo_test.o
 .debug_macro   0x00000000000014eb       0x43 ./src/echo_test.o
 .debug_macro   0x000000000000152e      0x187 ./src/echo_test.o
 .debug_macro   0x00000000000016b5       0x10 ./src/echo_test.o
 .debug_macro   0x00000000000016c5       0x35 ./src/echo_test.o
 .debug_macro   0x00000000000016fa       0x58 ./src/echo_test.o
 .debug_macro   0x0000000000001752       0xfd ./src/echo_test.o
 .debug_macro   0x000000000000184f       0x22 ./src/echo_test.o
 .debug_macro   0x0000000000001871      0x1df ./src/echo_test.o
 .debug_macro   0x0000000000001a50       0x4a ./src/echo_test.o
 .debug_macro   0x0000000000001a9a       0x1c ./src/echo_test.o
 .debug_macro   0x0000000000001ab6      0x587 ./src/echo_test.o
 .debug_macro   0x000000000000203d      0x51a ./src/echo_test.o
 .debug_macro   0x0000000000002557       0x16 ./src/echo_test.o
 .debug_macro   0x000000000000256d       0x1c ./src/echo_test.o
 .debug_macro   0x0000000000002589       0x22 ./src/echo_test.o
 .debug_macro   0x00000000000025ab       0x3a ./src/echo_test.o
 .debug_macro   0x00000000000025e5       0x10 ./src/echo_test.o
 .debug_macro   0x00000000000025f5       0x40 ./src/echo_test.o
 .debug_macro   0x0000000000002635       0x6c ./src/echo_test.o
 .debug_macro   0x00000000000026a1       0x16 ./src/echo_test.o
 .debug_macro   0x00000000000026b7      0x182 ./src/echo_test.o
 .debug_macro   0x0000000000002839       0x10 ./src/echo_test.o
 .debug_macro   0x0000000000002849       0x34 ./src/echo_test.o
 .debug_macro   0x000000000000287d       0x16 ./src/echo_test.o
 .debug_macro   0x0000000000002893       0x16 ./src/echo_test.o
 .debug_macro   0x00000000000028a9       0x29 ./src/echo_test.o
 .debug_macro   0x00000000000028d2       0x10 ./src/echo_test.o
 .debug_macro   0x00000000000028e2       0x16 ./src/echo_test.o
 .debug_macro   0x00000000000028f8       0x1c ./src/echo_test.o
 .debug_macro   0x0000000000002914       0x10 ./src/echo_test.o
 .debug_macro   0x0000000000002924      0x241 ./src/echo_test.o
 .debug_macro   0x0000000000002b65      0x1d3 ./src/echo_test.o
 .debug_macro   0x0000000000002d38       0x16 ./src/echo_test.o
 .debug_macro   0x0000000000002d4e       0x10 ./src/echo_test.o
 .debug_macro   0x0000000000002d5e       0x41 ./src/echo_test.o
 .debug_macro   0x0000000000002d9f      0x122 ./src/echo_test.o
 .debug_macro   0x0000000000002ec1       0x10 ./src/echo_test.o
 .debug_macro   0x0000000000002ed1       0x16 ./src/echo_test.o
 .debug_macro   0x0000000000002ee7       0x2b ./src/echo_test.o
 .debug_macro   0x0000000000002f12      0x118 ./src/echo_test.o
 .debug_macro   0x000000000000302a       0x37 ./src/echo_test.o
 .debug_macro   0x0000000000003061      0x400 ./src/echo_test.o
 .debug_macro   0x0000000000003461      0x696 ./src/echo_test.o
 .debug_macro   0x0000000000003af7       0x93 ./src/echo_test.o
 .debug_macro   0x0000000000003b8a       0x54 ./src/echo_test.o
 .debug_macro   0x0000000000003bde       0x81 ./src/echo_test.o
 .debug_macro   0x0000000000003c5f      0x2a2 ./src/echo_test.o
 .debug_macro   0x0000000000003f01       0x35 ./src/echo_test.o
 .debug_macro   0x0000000000003f36       0x10 ./src/echo_test.o
 .debug_macro   0x0000000000003f46       0x16 ./src/echo_test.o
 .debug_macro   0x0000000000003f5c       0x1c ./src/echo_test.o
 .debug_macro   0x0000000000003f78       0x4c ./src/echo_test.o
 .debug_macro   0x0000000000003fc4      0x118 ./src/echo_test.o
 .debug_macro   0x00000000000040dc       0xaa ./src/echo_test.o
 .debug_macro   0x0000000000004186       0xad ./src/echo_test.o
 .debug_macro   0x0000000000004233       0x70 ./src/echo_test.o
 .debug_macro   0x00000000000042a3       0x10 ./src/echo_test.o
 .debug_macro   0x00000000000042b3       0x10 ./src/echo_test.o
 .debug_macro   0x00000000000042c3       0x46 ./src/echo_test.o
 .debug_macro   0x0000000000004309       0x22 ./src/echo_test.o
 .debug_macro   0x000000000000432b       0xac ./src/echo_test.o
 .debug_macro   0x00000000000043d7       0x22 ./src/echo_test.o
 .debug_macro   0x00000000000043f9       0xa3 ./src/echo_test.o
 .debug_macro   0x000000000000449c       0x1c ./src/echo_test.o
 .debug_macro   0x00000000000044b8      0x42b ./src/helper.o
 .debug_macro   0x00000000000048e3       0x87 ./src/helper.o
 .debug_macro   0x000000000000496a       0x44 ./src/helper.o
 .debug_macro   0x00000000000049ae       0x7b ./src/helper.o
 .debug_macro   0x0000000000004a29       0x58 ./src/helper.o
 .debug_macro   0x0000000000004a81       0x28 ./src/helper.o
 .debug_macro   0x0000000000004aa9       0x10 ./src/helper.o
 .debug_macro   0x0000000000004ab9       0x16 ./src/helper.o
 .debug_macro   0x0000000000004acf       0x16 ./src/helper.o
 .debug_macro   0x0000000000004ae5       0x1c ./src/helper.o
 .debug_macro   0x0000000000004b01       0x16 ./src/helper.o
 .debug_macro   0x0000000000004b17      0x410 ./src/platform_info.o
 .debug_macro   0x0000000000004f27       0x16 ./src/platform_info.o
 .debug_macro   0x0000000000004f3d       0x97 ./src/platform_info.o
 .debug_macro   0x0000000000004fd4       0xfd ./src/platform_info.o
 .debug_macro   0x00000000000050d1       0x10 ./src/platform_info.o
 .debug_macro   0x00000000000050e1       0x52 ./src/platform_info.o
 .debug_macro   0x0000000000005133       0x16 ./src/platform_info.o
 .debug_macro   0x0000000000005149       0xac ./src/platform_info.o
 .debug_macro   0x00000000000051f5      0x498 ./src/rsc_table.o

.debug_line     0x0000000000000000     0xbeb7
 .debug_line    0x0000000000000000      0x7c9 ./src/echo_test.o
 .debug_line    0x00000000000007c9      0x73d ./src/helper.o
 .debug_line    0x0000000000000f06      0x712 ./src/platform_info.o
 .debug_line    0x0000000000001618      0x756 ./src/rsc_table.o
 .debug_line    0x0000000000001d6e      0x654 ../../slave_bsp/ps7_cortexa9_1/lib\libxil.a(xscugic.o)
 .debug_line    0x00000000000023c2      0x28f ../../slave_bsp/ps7_cortexa9_1/lib\libxil.a(xscugic_intr.o)
 .debug_line    0x0000000000002651      0x262 ../../slave_bsp/ps7_cortexa9_1/lib\libxil.a(xscugic_sinit.o)
 .debug_line    0x00000000000028b3       0x90 ../../slave_bsp/ps7_cortexa9_1/lib\libxil.a(asm_vectors.o)
 .debug_line    0x0000000000002943      0x105 ../../slave_bsp/ps7_cortexa9_1/lib\libxil.a(boot.o)
 .debug_line    0x0000000000002a48      0x15e ../../slave_bsp/ps7_cortexa9_1/lib\libxil.a(vectors.o)
 .debug_line    0x0000000000002ba6       0x54 ../../slave_bsp/ps7_cortexa9_1/lib\libxil.a(xil-crt0.o)
 .debug_line    0x0000000000002bfa      0x147 ../../slave_bsp/ps7_cortexa9_1/lib\libxil.a(xil_assert.o)
 .debug_line    0x0000000000002d41      0x3e2 ../../slave_bsp/ps7_cortexa9_1/lib\libxil.a(xil_cache.o)
 .debug_line    0x0000000000003123      0x17a ../../slave_bsp/ps7_cortexa9_1/lib\libxil.a(xil_exception.o)
 .debug_line    0x000000000000329d      0x35f ../../slave_bsp/ps7_cortexa9_1/lib\libxil.a(xil_printf.o)
 .debug_line    0x00000000000035fc      0x23a ../../slave_bsp/ps7_cortexa9_1/lib\libxil.a(xscugic_g.o)
 .debug_line    0x0000000000003836       0x48 ../../slave_bsp/ps7_cortexa9_1/lib\libxil.a(cpu_init.o)
 .debug_line    0x000000000000387e      0x229 ../../slave_bsp/ps7_cortexa9_1/lib\libxil.a(outbyte.o)
 .debug_line    0x0000000000003aa7      0x26d ../../slave_bsp/ps7_cortexa9_1/lib\libxil.a(xuartps_hw.o)
 .debug_line    0x0000000000003d14       0xb0 ../../slave_bsp/ps7_cortexa9_1/lib\libxil.a(_exit.o)
 .debug_line    0x0000000000003dc4      0x402 ../../slave_bsp/ps7_cortexa9_1/lib\libmetal.a(init.c.obj)
 .debug_line    0x00000000000041c6      0x3f9 ../../slave_bsp/ps7_cortexa9_1/lib\libmetal.a(log.c.obj)
 .debug_line    0x00000000000045bf      0x3ff ../../slave_bsp/ps7_cortexa9_1/lib\libmetal.a(init.c.obj)
 .debug_line    0x00000000000049be      0x5c9 ../../slave_bsp/ps7_cortexa9_1/lib\libmetal.a(irq.c.obj)
 .debug_line    0x0000000000004f87      0x432 ../../slave_bsp/ps7_cortexa9_1/lib\libmetal.a(sys.c.obj)
 .debug_line    0x00000000000053b9      0x738 ../../slave_bsp/ps7_cortexa9_1/lib\libopen_amp.a(hil.c.obj)
 .debug_line    0x0000000000005af1      0x29c ../../slave_bsp/ps7_cortexa9_1/lib\libopen_amp.a(firmware.c.obj)
 .debug_line    0x0000000000005d8d      0x667 ../../slave_bsp/ps7_cortexa9_1/lib\libopen_amp.a(virtqueue.c.obj)
 .debug_line    0x00000000000063f4      0x616 ../../slave_bsp/ps7_cortexa9_1/lib\libopen_amp.a(rpmsg.c.obj)
 .debug_line    0x0000000000006a0a      0x6a7 ../../slave_bsp/ps7_cortexa9_1/lib\libopen_amp.a(rpmsg_core.c.obj)
 .debug_line    0x00000000000070b1      0x5af ../../slave_bsp/ps7_cortexa9_1/lib\libopen_amp.a(remoteproc.c.obj)
 .debug_line    0x0000000000007660      0x50e ../../slave_bsp/ps7_cortexa9_1/lib\libopen_amp.a(remoteproc_loader.c.obj)
 .debug_line    0x0000000000007b6e      0x5d1 ../../slave_bsp/ps7_cortexa9_1/lib\libopen_amp.a(rsc_table_parser.c.obj)
 .debug_line    0x000000000000813f      0x597 ../../slave_bsp/ps7_cortexa9_1/lib\libopen_amp.a(zynq_remoteproc_a9.c.obj)
 .debug_line    0x00000000000086d6      0x3a1 ../../slave_bsp/ps7_cortexa9_1/lib\libopen_amp.a(sh_mem.c.obj)
 .debug_line    0x0000000000008a77      0x674 ../../slave_bsp/ps7_cortexa9_1/lib\libopen_amp.a(remote_device.c.obj)
 .debug_line    0x00000000000090eb      0x5f6 ../../slave_bsp/ps7_cortexa9_1/lib\libopen_amp.a(elf_loader.c.obj)
 .debug_line    0x00000000000096e1      0x133 ../../slave_bsp/ps7_cortexa9_1/lib\libxil.a(_sbrk.o)
 .debug_line    0x0000000000009814      0x229 ../../slave_bsp/ps7_cortexa9_1/lib\libxil.a(fstat.o)
 .debug_line    0x0000000000009a3d      0x123 ../../slave_bsp/ps7_cortexa9_1/lib\libxil.a(getpid.o)
 .debug_line    0x0000000000009b60       0xb1 ../../slave_bsp/ps7_cortexa9_1/lib\libxil.a(isatty.o)
 .debug_line    0x0000000000009c11       0xbb ../../slave_bsp/ps7_cortexa9_1/lib\libxil.a(kill.o)
 .debug_line    0x0000000000009ccc      0x1c1 ../../slave_bsp/ps7_cortexa9_1/lib\libxil.a(lseek.o)
 .debug_line    0x0000000000009e8d      0x141 ../../slave_bsp/ps7_cortexa9_1/lib\libxil.a(xil_mmu.o)
 .debug_line    0x0000000000009fce      0x133 ../../slave_bsp/ps7_cortexa9_1/lib\libxil.a(errno.o)
 .debug_line    0x000000000000a101      0x525 ../../slave_bsp/ps7_cortexa9_1/lib\libmetal.a(device.c.obj)
 .debug_line    0x000000000000a626      0x477 ../../slave_bsp/ps7_cortexa9_1/lib\libmetal.a(io.c.obj)
 .debug_line    0x000000000000aa9d      0x414 ../../slave_bsp/ps7_cortexa9_1/lib\libmetal.a(shmem.c.obj)
 .debug_line    0x000000000000aeb1       0xc0 ../../slave_bsp/ps7_cortexa9_1/lib\libmetal.a(cache.c.obj)
 .debug_line    0x000000000000af71      0x466 ../../slave_bsp/ps7_cortexa9_1/lib\libmetal.a(io.c.obj)
 .debug_line    0x000000000000b3d7       0xbd ../../slave_bsp/ps7_cortexa9_1/lib\libmetal.a(sleep.c.obj)
 .debug_line    0x000000000000b494      0x456 ../../slave_bsp/ps7_cortexa9_1/lib\libmetal.a(shmem.c.obj)
 .debug_line    0x000000000000b8ea      0x5cd ../../slave_bsp/ps7_cortexa9_1/lib\libopen_amp.a(rpmsg_retarget.c.obj)

.debug_str      0x0000000000000000    0x17fa6
 .debug_str     0x0000000000000000    0x1442b ./src/echo_test.o
                                      0x1496a (size before relaxing)
 .debug_str     0x000000000001442b      0x407 ./src/helper.o
                                      0x13e49 (size before relaxing)
 .debug_str     0x0000000000014832       0x83 ./src/platform_info.o
                                      0x13ec1 (size before relaxing)
 .debug_str     0x00000000000148b5      0x20c ./src/rsc_table.o
                                      0x1449f (size before relaxing)
 .debug_str     0x0000000000014ac1      0x284 ../../slave_bsp/ps7_cortexa9_1/lib\libxil.a(xscugic.o)
                                        0x878 (size before relaxing)
 .debug_str     0x0000000000014d45       0x50 ../../slave_bsp/ps7_cortexa9_1/lib\libxil.a(xscugic_intr.o)
                                        0x6ea (size before relaxing)
 .debug_str     0x0000000000014d95       0x40 ../../slave_bsp/ps7_cortexa9_1/lib\libxil.a(xscugic_sinit.o)
                                        0x663 (size before relaxing)
 .debug_str     0x0000000000014dd5      0x102 ../../slave_bsp/ps7_cortexa9_1/lib\libxil.a(vectors.o)
                                        0x249 (size before relaxing)
 .debug_str     0x0000000000014ed7       0x81 ../../slave_bsp/ps7_cortexa9_1/lib\libxil.a(xil_assert.o)
                                        0x221 (size before relaxing)
 .debug_str     0x0000000000014f58      0x321 ../../slave_bsp/ps7_cortexa9_1/lib\libxil.a(xil_cache.o)
                                        0x8b1 (size before relaxing)
 .debug_str     0x0000000000015279      0x10b ../../slave_bsp/ps7_cortexa9_1/lib\libxil.a(xil_exception.o)
                                        0x2fc (size before relaxing)
 .debug_str     0x0000000000015384       0xed ../../slave_bsp/ps7_cortexa9_1/lib\libxil.a(xil_printf.o)
                                        0x6a8 (size before relaxing)
 .debug_str     0x0000000000015471        0xc ../../slave_bsp/ps7_cortexa9_1/lib\libxil.a(xscugic_g.o)
                                        0x63d (size before relaxing)
 .debug_str     0x000000000001547d       0x12 ../../slave_bsp/ps7_cortexa9_1/lib\libxil.a(outbyte.o)
                                        0x599 (size before relaxing)
 .debug_str     0x000000000001548f       0xb1 ../../slave_bsp/ps7_cortexa9_1/lib\libxil.a(xuartps_hw.o)
                                        0x638 (size before relaxing)
 .debug_str     0x0000000000015540       0x3b ../../slave_bsp/ps7_cortexa9_1/lib\libxil.a(_exit.o)
                                        0x19f (size before relaxing)
 .debug_str     0x000000000001557b      0x121 ../../slave_bsp/ps7_cortexa9_1/lib\libmetal.a(init.c.obj)
                                        0x79d (size before relaxing)
 .debug_str     0x000000000001569c       0xf0 ../../slave_bsp/ps7_cortexa9_1/lib\libmetal.a(log.c.obj)
                                        0x7d3 (size before relaxing)
 .debug_str     0x000000000001578c       0xab ../../slave_bsp/ps7_cortexa9_1/lib\libmetal.a(init.c.obj)
                                        0x799 (size before relaxing)
 .debug_str     0x0000000000015837      0x229 ../../slave_bsp/ps7_cortexa9_1/lib\libmetal.a(irq.c.obj)
                                        0x976 (size before relaxing)
 .debug_str     0x0000000000015a60      0x157 ../../slave_bsp/ps7_cortexa9_1/lib\libmetal.a(sys.c.obj)
                                        0x87a (size before relaxing)
 .debug_str     0x0000000000015bb7      0x42b ../../slave_bsp/ps7_cortexa9_1/lib\libopen_amp.a(hil.c.obj)
                                       0x113f (size before relaxing)
 .debug_str     0x0000000000015fe2       0x9a ../../slave_bsp/ps7_cortexa9_1/lib\libopen_amp.a(firmware.c.obj)
                                        0x635 (size before relaxing)
 .debug_str     0x000000000001607c      0x37d ../../slave_bsp/ps7_cortexa9_1/lib\libopen_amp.a(virtqueue.c.obj)
                                        0xdda (size before relaxing)
 .debug_str     0x00000000000163f9      0x1c7 ../../slave_bsp/ps7_cortexa9_1/lib\libopen_amp.a(rpmsg.c.obj)
                                       0x1033 (size before relaxing)
 .debug_str     0x00000000000165c0      0x220 ../../slave_bsp/ps7_cortexa9_1/lib\libopen_amp.a(rpmsg_core.c.obj)
                                       0x1146 (size before relaxing)
 .debug_str     0x00000000000167e0      0x1be ../../slave_bsp/ps7_cortexa9_1/lib\libopen_amp.a(remoteproc.c.obj)
                                       0x10ae (size before relaxing)
 .debug_str     0x000000000001699e      0x18a ../../slave_bsp/ps7_cortexa9_1/lib\libopen_amp.a(remoteproc_loader.c.obj)
                                        0xb39 (size before relaxing)
 .debug_str     0x0000000000016b28      0x19f ../../slave_bsp/ps7_cortexa9_1/lib\libopen_amp.a(rsc_table_parser.c.obj)
                                       0x107f (size before relaxing)
 .debug_str     0x0000000000016cc7      0x15f ../../slave_bsp/ps7_cortexa9_1/lib\libopen_amp.a(zynq_remoteproc_a9.c.obj)
                                        0xf08 (size before relaxing)
 .debug_str     0x0000000000016e26      0x117 ../../slave_bsp/ps7_cortexa9_1/lib\libopen_amp.a(sh_mem.c.obj)
                                        0x77e (size before relaxing)
 .debug_str     0x0000000000016f3d      0x26f ../../slave_bsp/ps7_cortexa9_1/lib\libopen_amp.a(remote_device.c.obj)
                                       0x1212 (size before relaxing)
 .debug_str     0x00000000000171ac      0x4cf ../../slave_bsp/ps7_cortexa9_1/lib\libopen_amp.a(elf_loader.c.obj)
                                        0xee2 (size before relaxing)
 .debug_str     0x000000000001767b       0x46 ../../slave_bsp/ps7_cortexa9_1/lib\libxil.a(_sbrk.o)
                                        0x1cc (size before relaxing)
 .debug_str     0x00000000000176c1       0xd0 ../../slave_bsp/ps7_cortexa9_1/lib\libxil.a(fstat.o)
                                        0x64e (size before relaxing)
 .debug_str     0x0000000000017791       0x11 ../../slave_bsp/ps7_cortexa9_1/lib\libxil.a(getpid.o)
                                        0x177 (size before relaxing)
 .debug_str     0x00000000000177a2       0x11 ../../slave_bsp/ps7_cortexa9_1/lib\libxil.a(isatty.o)
                                        0x1a2 (size before relaxing)
 .debug_str     0x00000000000177b3       0x13 ../../slave_bsp/ps7_cortexa9_1/lib\libxil.a(kill.o)
                                        0x19b (size before relaxing)
 .debug_str     0x00000000000177c6       0x16 ../../slave_bsp/ps7_cortexa9_1/lib\libxil.a(lseek.o)
                                        0x57d (size before relaxing)
 .debug_str     0x00000000000177dc       0x4c ../../slave_bsp/ps7_cortexa9_1/lib\libxil.a(xil_mmu.o)
                                        0x1da (size before relaxing)
 .debug_str     0x0000000000017828       0x10 ../../slave_bsp/ps7_cortexa9_1/lib\libxil.a(errno.o)
                                        0x559 (size before relaxing)
 .debug_str     0x0000000000017838      0x17b ../../slave_bsp/ps7_cortexa9_1/lib\libmetal.a(device.c.obj)
                                        0xace (size before relaxing)
 .debug_str     0x00000000000179b3       0xd6 ../../slave_bsp/ps7_cortexa9_1/lib\libmetal.a(io.c.obj)
                                        0x7d3 (size before relaxing)
 .debug_str     0x0000000000017a89       0x9d ../../slave_bsp/ps7_cortexa9_1/lib\libmetal.a(shmem.c.obj)
                                        0x894 (size before relaxing)
 .debug_str     0x0000000000017b26       0xb5 ../../slave_bsp/ps7_cortexa9_1/lib\libmetal.a(cache.c.obj)
                                        0x116 (size before relaxing)
 .debug_str     0x0000000000017bdb       0x9a ../../slave_bsp/ps7_cortexa9_1/lib\libmetal.a(io.c.obj)
                                        0x8ff (size before relaxing)
 .debug_str     0x0000000000017c75       0x9d ../../slave_bsp/ps7_cortexa9_1/lib\libmetal.a(sleep.c.obj)
                                         0xfe (size before relaxing)
 .debug_str     0x0000000000017d12       0xdc ../../slave_bsp/ps7_cortexa9_1/lib\libmetal.a(shmem.c.obj)
                                        0x93c (size before relaxing)
 .debug_str     0x0000000000017dee      0x1b8 ../../slave_bsp/ps7_cortexa9_1/lib\libopen_amp.a(rpmsg_retarget.c.obj)
                                       0x107e (size before relaxing)

.debug_frame    0x0000000000000000     0x34bc
 .debug_frame   0x0000000000000000       0xec ./src/echo_test.o
 .debug_frame   0x00000000000000ec       0x6c ./src/helper.o
 .debug_frame   0x0000000000000158       0x30 ./src/platform_info.o
 .debug_frame   0x0000000000000188       0x30 ./src/rsc_table.o
 .debug_frame   0x00000000000001b8      0x25c ../../slave_bsp/ps7_cortexa9_1/lib\libxil.a(xscugic.o)
 .debug_frame   0x0000000000000414       0x70 ../../slave_bsp/ps7_cortexa9_1/lib\libxil.a(xscugic_intr.o)
 .debug_frame   0x0000000000000484       0x30 ../../slave_bsp/ps7_cortexa9_1/lib\libxil.a(xscugic_sinit.o)
 .debug_frame   0x00000000000004b4       0xb8 ../../slave_bsp/ps7_cortexa9_1/lib\libxil.a(vectors.o)
 .debug_frame   0x000000000000056c       0x70 ../../slave_bsp/ps7_cortexa9_1/lib\libxil.a(xil_assert.o)
 .debug_frame   0x00000000000005dc      0x398 ../../slave_bsp/ps7_cortexa9_1/lib\libxil.a(xil_cache.o)
 .debug_frame   0x0000000000000974       0xd0 ../../slave_bsp/ps7_cortexa9_1/lib\libxil.a(xil_exception.o)
 .debug_frame   0x0000000000000a44       0xcc ../../slave_bsp/ps7_cortexa9_1/lib\libxil.a(xil_printf.o)
 .debug_frame   0x0000000000000b10       0x30 ../../slave_bsp/ps7_cortexa9_1/lib\libxil.a(outbyte.o)
 .debug_frame   0x0000000000000b40       0xb0 ../../slave_bsp/ps7_cortexa9_1/lib\libxil.a(xuartps_hw.o)
 .debug_frame   0x0000000000000bf0       0x20 c:/xilinx/sdk/2017.2/gnu/aarch32/nt/gcc-arm-none-eabi/bin/../lib/gcc/arm-none-eabi/6.2.1/v7-a/fpv3/hard\libgcc.a(_udivsi3.o)
 .debug_frame   0x0000000000000c10       0x28 ../../slave_bsp/ps7_cortexa9_1/lib\libxil.a(_exit.o)
 .debug_frame   0x0000000000000c38       0x6c ../../slave_bsp/ps7_cortexa9_1/lib\libmetal.a(init.c.obj)
 .debug_frame   0x0000000000000ca4       0xc0 ../../slave_bsp/ps7_cortexa9_1/lib\libmetal.a(log.c.obj)
 .debug_frame   0x0000000000000d64       0x4c ../../slave_bsp/ps7_cortexa9_1/lib\libmetal.a(init.c.obj)
 .debug_frame   0x0000000000000db0      0x1e8 ../../slave_bsp/ps7_cortexa9_1/lib\libmetal.a(irq.c.obj)
 .debug_frame   0x0000000000000f98       0xd0 ../../slave_bsp/ps7_cortexa9_1/lib\libmetal.a(sys.c.obj)
 .debug_frame   0x0000000000001068      0x4bc ../../slave_bsp/ps7_cortexa9_1/lib\libopen_amp.a(hil.c.obj)
 .debug_frame   0x0000000000001524       0x30 ../../slave_bsp/ps7_cortexa9_1/lib\libopen_amp.a(firmware.c.obj)
 .debug_frame   0x0000000000001554      0x43c ../../slave_bsp/ps7_cortexa9_1/lib\libopen_amp.a(virtqueue.c.obj)
 .debug_frame   0x0000000000001990      0x1d4 ../../slave_bsp/ps7_cortexa9_1/lib\libopen_amp.a(rpmsg.c.obj)
 .debug_frame   0x0000000000001b64      0x358 ../../slave_bsp/ps7_cortexa9_1/lib\libopen_amp.a(rpmsg_core.c.obj)
 .debug_frame   0x0000000000001ebc      0x110 ../../slave_bsp/ps7_cortexa9_1/lib\libopen_amp.a(remoteproc.c.obj)
 .debug_frame   0x0000000000001fcc      0x130 ../../slave_bsp/ps7_cortexa9_1/lib\libopen_amp.a(remoteproc_loader.c.obj)
 .debug_frame   0x00000000000020fc      0x170 ../../slave_bsp/ps7_cortexa9_1/lib\libopen_amp.a(rsc_table_parser.c.obj)
 .debug_frame   0x000000000000226c      0x154 ../../slave_bsp/ps7_cortexa9_1/lib\libopen_amp.a(zynq_remoteproc_a9.c.obj)
 .debug_frame   0x00000000000023c0      0x174 ../../slave_bsp/ps7_cortexa9_1/lib\libopen_amp.a(sh_mem.c.obj)
 .debug_frame   0x0000000000002534      0x35c ../../slave_bsp/ps7_cortexa9_1/lib\libopen_amp.a(remote_device.c.obj)
 .debug_frame   0x0000000000002890      0x274 ../../slave_bsp/ps7_cortexa9_1/lib\libopen_amp.a(elf_loader.c.obj)
 .debug_frame   0x0000000000002b04       0x20 c:/xilinx/sdk/2017.2/gnu/aarch32/nt/gcc-arm-none-eabi/bin/../lib/gcc/arm-none-eabi/6.2.1/v7-a/fpv3/hard\libgcc.a(_divsi3.o)
 .debug_frame   0x0000000000002b24       0x68 c:/xilinx/sdk/2017.2/gnu/aarch32/nt/gcc-arm-none-eabi/bin/../arm-none-eabi/libc/usr/lib/v7-a/fpv3/hard\libc.a(lib_a-strcmp.o)
 .debug_frame   0x0000000000002b8c       0x30 ../../slave_bsp/ps7_cortexa9_1/lib\libxil.a(_sbrk.o)
 .debug_frame   0x0000000000002bbc       0x30 ../../slave_bsp/ps7_cortexa9_1/lib\libxil.a(fstat.o)
 .debug_frame   0x0000000000002bec       0x50 ../../slave_bsp/ps7_cortexa9_1/lib\libxil.a(getpid.o)
 .debug_frame   0x0000000000002c3c       0x50 ../../slave_bsp/ps7_cortexa9_1/lib\libxil.a(isatty.o)
 .debug_frame   0x0000000000002c8c       0x50 ../../slave_bsp/ps7_cortexa9_1/lib\libxil.a(kill.o)
 .debug_frame   0x0000000000002cdc       0x50 ../../slave_bsp/ps7_cortexa9_1/lib\libxil.a(lseek.o)
 .debug_frame   0x0000000000002d2c       0x70 ../../slave_bsp/ps7_cortexa9_1/lib\libxil.a(xil_mmu.o)
 .debug_frame   0x0000000000002d9c       0x30 ../../slave_bsp/ps7_cortexa9_1/lib\libxil.a(errno.o)
 .debug_frame   0x0000000000002dcc      0x1f0 ../../slave_bsp/ps7_cortexa9_1/lib\libmetal.a(device.c.obj)
 .debug_frame   0x0000000000002fbc       0x90 ../../slave_bsp/ps7_cortexa9_1/lib\libmetal.a(io.c.obj)
 .debug_frame   0x000000000000304c       0x30 ../../slave_bsp/ps7_cortexa9_1/lib\libmetal.a(shmem.c.obj)
 .debug_frame   0x000000000000307c       0x50 ../../slave_bsp/ps7_cortexa9_1/lib\libmetal.a(cache.c.obj)
 .debug_frame   0x00000000000030cc       0xb0 ../../slave_bsp/ps7_cortexa9_1/lib\libmetal.a(io.c.obj)
 .debug_frame   0x000000000000317c       0x30 ../../slave_bsp/ps7_cortexa9_1/lib\libmetal.a(sleep.c.obj)
 .debug_frame   0x00000000000031ac       0xb0 ../../slave_bsp/ps7_cortexa9_1/lib\libmetal.a(shmem.c.obj)
 .debug_frame   0x000000000000325c      0x234 ../../slave_bsp/ps7_cortexa9_1/lib\libopen_amp.a(rpmsg_retarget.c.obj)
 .debug_frame   0x0000000000003490       0x2c c:/xilinx/sdk/2017.2/gnu/aarch32/nt/gcc-arm-none-eabi/bin/../lib/gcc/arm-none-eabi/6.2.1/v7-a/fpv3/hard\libgcc.a(_aeabi_uldivmod.o)
